BL51 BANKED LINKER/LOCATER V6.22                                                        01/08/2019  21:00:42  PAGE 1


BL51 BANKED LINKER/LOCATER V6.22, INVOKED BY:
C:\KEIL_V5\C51\BIN\BL51.EXE .\obj\char.obj, .\obj\FFT.obj, .\obj\FLASH.obj, .\obj\HC573.obj, .\obj\KEY.obj, .\obj\test.o
>> bj TO .\obj\test PRINT (.\obj\test.m51)


MEMORY MODEL: LARGE


INPUT MODULES INCLUDED:
  .\obj\char.obj (CHAR)
  .\obj\FFT.obj (FFT)
  .\obj\FLASH.obj (FLASH)
  .\obj\HC573.obj (HC573)
  .\obj\KEY.obj (KEY)
  .\obj\test.obj (TEST)
  C:\KEIL_V5\C51\LIB\C51L.LIB (?C_STARTUP)
  C:\KEIL_V5\C51\LIB\C51L.LIB (?C?CLDPTR)
  C:\KEIL_V5\C51\LIB\C51L.LIB (?C?CSTPTR)
  C:\KEIL_V5\C51\LIB\C51L.LIB (?C?IMUL)
  C:\KEIL_V5\C51\LIB\C51L.LIB (?C?UIDIV)
  C:\KEIL_V5\C51\LIB\C51L.LIB (?C?SIDIV)
  C:\KEIL_V5\C51\LIB\C51L.LIB (?C_INIT)


LINK MAP OF MODULE:  .\obj\test (CHAR)


            TYPE    BASE      LENGTH    RELOCATION   SEGMENT NAME
            -----------------------------------------------------

            * * * * * * *   D A T A   M E M O R Y   * * * * * * *
            REG     0000H     0008H     ABSOLUTE     "REG BANK 0"
            IDATA   0008H     0001H     UNIT         ?STACK

            * * * * * * *  X D A T A   M E M O R Y  * * * * * * *
            XDATA   0000H     021FH     UNIT         ?XD?FFT
            XDATA   021FH     00C9H     UNIT         ?XD?TEST
            XDATA   02E8H     0034H     UNIT         _XDATA_GROUP_
            XDATA   031CH     0001H     UNIT         ?XD?KEY

            * * * * * * *   C O D E   M E M O R Y   * * * * * * *
            CODE    0000H     0003H     ABSOLUTE     
            CODE    0003H     0008H     UNIT         ?PR?DELAY7US?FLASH
            CODE    000BH     0003H     ABSOLUTE     
            CODE    000EH     000DH     UNIT         ?PR?_ABSS?FLASH
            CODE    001BH     0003H     ABSOLUTE     
                    001EH     0005H                  *** GAP ***
            CODE    0023H     0003H     ABSOLUTE     
                    0026H     0005H                  *** GAP ***
            CODE    002BH     0003H     ABSOLUTE     
            CODE    002EH     0762H     UNIT         ?PR?FLASH_5?FLASH
            CODE    0790H     057EH     UNIT         ?PR?FLASH_10?FLASH
            CODE    0D0EH     0537H     UNIT         ?PR?FLASH_9?FLASH
            CODE    1245H     0486H     UNIT         ?PR?_BOX?FLASH
            CODE    16CBH     047FH     UNIT         ?PR?FFT?FFT
            CODE    1B4AH     0443H     UNIT         ?PR?MAIN?TEST
            CODE    1F8DH     0380H     UNIT         ?CO?CHAR
            CODE    230DH     0300H     UNIT         ?PR?FLASH_4?FLASH
BL51 BANKED LINKER/LOCATER V6.22                                                      01/08/2019  21:00:42  PAGE 2


            CODE    260DH     02DAH     UNIT         ?PR?CON?CHAR
            CODE    28E7H     01A1H     UNIT         ?PR?_ROLL_3_XY?FLASH
            CODE    2A88H     0191H     UNIT         ?PR?FLASH_7?FLASH
            CODE    2C19H     0190H     UNIT         ?PR?_LINE?FLASH
            CODE    2DA9H     0180H     UNIT         ?CO?FFT
            CODE    2F29H     0173H     UNIT         ?PR?_ROLL_APEAK_XY?FLASH
            CODE    309CH     0172H     UNIT         ?PR?FLASH_11?FLASH
            CODE    320EH     0141H     UNIT         ?CO?FLASH
            CODE    334FH     013DH     UNIT         ?PR?_BOX_APEAK_XY?FLASH
            CODE    348CH     0129H     UNIT         ?PR?_TRANOUTCHAR?FLASH
            CODE    35B5H     011CH     UNIT         ?PR?FLASH_3?FLASH
            CODE    36D1H     0113H     UNIT         ?PR?INTERRUPT_FFT_DISPLAY?TEST
            CODE    37E4H     010AH     UNIT         ?PR?_ROLL_APEAK_YZ?FLASH
            CODE    38EEH     0101H     UNIT         ?PR?FLASH_6?FLASH
            CODE    39EFH     00C8H     UNIT         ?PR?FLASH_2?FLASH
            CODE    3AB7H     00C8H     UNIT         ?C?LIB_CODE
            CODE    3B7FH     00C6H     UNIT         ?PR?INTERRUPT_UART?TEST
            CODE    3C45H     009BH     UNIT         ?PR?INTERRUPT_PRINT?TEST
            CODE    3CE0H     008CH     UNIT         ?C_C51STARTUP
            CODE    3D6CH     007CH     UNIT         ?PR?ADC_FINISH?TEST
            CODE    3DE8H     006EH     UNIT         ?PR?_CIRP?FLASH
            CODE    3E56H     006AH     UNIT         ?PR?_POINT?FLASH
            CODE    3EC0H     0063H     UNIT         ?PR?FLASH_DIY?CHAR
            CODE    3F23H     004EH     UNIT         ?PR?_LAYER_CS?TEST
            CODE    3F71H     0047H     UNIT         ?C_INITSEG
            CODE    3FB8H     0047H     UNIT         ?PR?_TRANS?FLASH
            CODE    3FFFH     0045H     UNIT         ?PR?KEY_SCAN?KEY
            CODE    4044H     0043H     UNIT         ?PR?HANG1?HC573
            CODE    4087H     0043H     UNIT         ?PR?HANG2?HC573
            CODE    40CAH     003FH     UNIT         ?PR?_MAX?FLASH
            CODE    4109H     0033H     UNIT         ?PR?HANG3?HC573
            CODE    413CH     0033H     UNIT         ?PR?HANG4?HC573
            CODE    416FH     0033H     UNIT         ?PR?HANG5?HC573
            CODE    41A2H     0033H     UNIT         ?PR?HANG6?HC573
            CODE    41D5H     0033H     UNIT         ?PR?HANG7?HC573
            CODE    4208H     0033H     UNIT         ?PR?HANG8?HC573
            CODE    423BH     002EH     UNIT         ?PR?FLASH_8?FLASH
            CODE    4269H     002BH     UNIT         ?PR?TRANSSS?FLASH
            CODE    4294H     0029H     UNIT         ?PR?_CLEAR?FLASH
            CODE    42BDH     0021H     UNIT         ?PR?_DELAY?FLASH
            CODE    42DEH     001AH     UNIT         ?PR?_ABS?FLASH
            CODE    42F8H     0019H     UNIT         ?PR?UART_INIT?TEST
            CODE    4311H     0014H     UNIT         ?PR?INIT?TEST
            CODE    4325H     000FH     UNIT         ?PR?_MAXT?FLASH
            CODE    4334H     0008H     UNIT         ?CO?TEST



OVERLAY MAP OF MODULE:   .\obj\test (CHAR)


SEGMENT                                  XDATA_GROUP
  +--> CALLED SEGMENT                  START    LENGTH
------------------------------------------------------
?PR?INTERRUPT_UART?TEST                02E8H    0004H

*** NEW ROOT ***************************************************
BL51 BANKED LINKER/LOCATER V6.22                                                      01/08/2019  21:00:42  PAGE 3



?PR?INTERRUPT_FFT_DISPLAY?TEST         -----    -----
  +--> ?PR?_LAYER_CS?TEST
  +--> ?PR?HANG1?HC573
  +--> ?PR?HANG2?HC573
  +--> ?PR?HANG3?HC573
  +--> ?PR?HANG4?HC573
  +--> ?PR?HANG5?HC573
  +--> ?PR?HANG6?HC573
  +--> ?PR?HANG7?HC573
  +--> ?PR?HANG8?HC573

?PR?_LAYER_CS?TEST                     02EDH    0001H
  +--> ?CO?TEST

*** NEW ROOT ***************************************************

?PR?ADC_FINISH?TEST                    -----    -----
  +--> ?CO?FFT

*** NEW ROOT ***************************************************

?PR?INTERRUPT_PRINT?TEST               -----    -----
  +--> ?PR?_LAYER_CS?TEST

*** NEW ROOT ***************************************************

?C_C51STARTUP                          -----    -----
  +--> ?PR?MAIN?TEST
  +--> ?C_INITSEG

?PR?MAIN?TEST                          02EEH    0002H
  +--> ?PR?INIT?TEST
  +--> ?PR?_CLEAR?FLASH
  +--> ?PR?KEY_SCAN?KEY
  +--> ?PR?UART_INIT?TEST
  +--> ?PR?FFT?FFT
  +--> ?PR?FLASH_DIY?CHAR
  +--> ?PR?FLASH_2?FLASH
  +--> ?PR?FLASH_3?FLASH
  +--> ?PR?FLASH_4?FLASH
  +--> ?PR?FLASH_5?FLASH
  +--> ?PR?FLASH_6?FLASH
  +--> ?PR?FLASH_7?FLASH
  +--> ?PR?FLASH_8?FLASH
  +--> ?PR?FLASH_9?FLASH
  +--> ?PR?FLASH_10?FLASH
  +--> ?PR?FLASH_11?FLASH

?PR?KEY_SCAN?KEY                       -----    -----
  +--> ?PR?_DELAY?FLASH

?PR?_DELAY?FLASH                       -----    -----
  +--> ?PR?DELAY7US?FLASH

?PR?FFT?FFT                            -----    -----
  +--> ?CO?FFT
BL51 BANKED LINKER/LOCATER V6.22                                                      01/08/2019  21:00:42  PAGE 4



?PR?FLASH_DIY?CHAR                     02F0H    0001H
  +--> ?PR?_DELAY?FLASH
  +--> ?CO?CHAR
  +--> ?PR?CON?CHAR

?PR?CON?CHAR                           02F1H    0001H
  +--> ?PR?_CLEAR?FLASH

?PR?FLASH_2?FLASH                      02F0H    0001H
  +--> ?PR?_CIRP?FLASH
  +--> ?PR?_DELAY?FLASH

?PR?_CIRP?FLASH                        -----    -----
  +--> ?CO?FLASH
  +--> ?PR?_POINT?FLASH

?PR?_POINT?FLASH                       0316H    0006H

?PR?FLASH_3?FLASH                      02F0H    0001H
  +--> ?PR?_BOX_APEAK_XY?FLASH
  +--> ?PR?_DELAY?FLASH

?PR?_BOX_APEAK_XY?FLASH                02FFH    0009H
  +--> ?PR?_MAX?FLASH
  +--> ?PR?_LINE?FLASH

?PR?_MAX?FLASH                         0308H    0006H

?PR?_LINE?FLASH                        0308H    000EH
  +--> ?CO?FLASH
  +--> ?PR?_ABSS?FLASH
  +--> ?PR?_MAXT?FLASH
  +--> ?PR?_ABS?FLASH
  +--> ?PR?_POINT?FLASH

?PR?FLASH_4?FLASH                      02F0H    000AH
  +--> ?PR?_LINE?FLASH
  +--> ?PR?_DELAY?FLASH

?PR?FLASH_5?FLASH                      02F0H    0008H
  +--> ?PR?_BOX_APEAK_XY?FLASH
  +--> ?PR?_DELAY?FLASH

?PR?FLASH_6?FLASH                      02F0H    0004H
  +--> ?PR?_ROLL_APEAK_YZ?FLASH
  +--> ?CO?FLASH
  +--> ?PR?_POINT?FLASH
  +--> ?PR?_DELAY?FLASH
  +--> ?PR?_TRANS?FLASH

?PR?_ROLL_APEAK_YZ?FLASH               02F4H    0003H
  +--> ?PR?_DELAY?FLASH

?PR?_TRANS?FLASH                       02F4H    0004H
  +--> ?PR?_DELAY?FLASH

BL51 BANKED LINKER/LOCATER V6.22                                                      01/08/2019  21:00:42  PAGE 5


?PR?FLASH_7?FLASH                      02F0H    0003H
  +--> ?PR?_ROLL_APEAK_YZ?FLASH
  +--> ?PR?_ROLL_APEAK_XY?FLASH
  +--> ?PR?_BOX_APEAK_XY?FLASH
  +--> ?PR?_DELAY?FLASH
  +--> ?PR?_ROLL_3_XY?FLASH

?PR?_ROLL_APEAK_XY?FLASH               02FFH    0003H
  +--> ?PR?_LINE?FLASH
  +--> ?PR?_DELAY?FLASH

?PR?_ROLL_3_XY?FLASH                   02F3H    0003H
  +--> ?PR?_BOX_APEAK_XY?FLASH
  +--> ?PR?_DELAY?FLASH

?PR?FLASH_8?FLASH                      02F0H    0001H
  +--> ?PR?_TRANOUTCHAR?FLASH
  +--> ?PR?_DELAY?FLASH

?PR?_TRANOUTCHAR?FLASH                 02F1H    0006H
  +--> ?PR?_BOX_APEAK_XY?FLASH
  +--> ?CO?FLASH
  +--> ?PR?_DELAY?FLASH

?PR?FLASH_9?FLASH                      02F0H    000FH
  +--> ?PR?_BOX_APEAK_XY?FLASH
  +--> ?PR?_DELAY?FLASH
  +--> ?PR?_ROLL_APEAK_XY?FLASH
  +--> ?PR?_LINE?FLASH
  +--> ?PR?_CLEAR?FLASH
  +--> ?CO?FLASH
  +--> ?PR?_BOX?FLASH

?PR?_BOX?FLASH                         02FFH    0009H
  +--> ?PR?_CLEAR?FLASH
  +--> ?PR?_MAX?FLASH

?PR?FLASH_10?FLASH                     02F0H    0009H
  +--> ?PR?_BOX?FLASH
  +--> ?PR?_DELAY?FLASH
  +--> ?PR?_CLEAR?FLASH
  +--> ?CO?FLASH

?PR?FLASH_11?FLASH                     02F0H    0005H
  +--> ?CO?FLASH
  +--> ?PR?_LINE?FLASH
  +--> ?PR?TRANSSS?FLASH
  +--> ?PR?_DELAY?FLASH
  +--> ?PR?_BOX_APEAK_XY?FLASH
  +--> ?PR?_POINT?FLASH



SYMBOL TABLE OF MODULE:  .\obj\test (CHAR)

  VALUE           TYPE          NAME
  ----------------------------------
BL51 BANKED LINKER/LOCATER V6.22                                                      01/08/2019  21:00:42  PAGE 6



  -------         MODULE        CHAR
  C:0000H         SYMBOL        _ICE_DUMMY_
  D:00A8H         PUBLIC        IE
  D:00B8H         PUBLIC        IP
  D:00D8H         PUBLIC        CCON
  D:0098H         PUBLIC        SCON
  D:0088H         PUBLIC        TCON
  C:3EC0H         PUBLIC        flash_diy
  C:260DH         PUBLIC        con
  C:1F8DH         PUBLIC        ch
  B:0088H.4       PUBLIC        TR0
  D:00D0H         PUBLIC        PSW
  -------         PROC          FLASH_DIY
  -------         DO            
  D:0007H         SYMBOL        i
  X:02F0H         SYMBOL        j
  -------         ENDDO         
  C:3EC0H         LINE#         193
  C:3EC0H         LINE#         194
  C:3EC0H         LINE#         198
  C:3EC5H         LINE#         199
  C:3EC5H         LINE#         201
  C:3ECCH         LINE#         202
  C:3ED3H         LINE#         203
  C:3EDAH         LINE#         204
  C:3EE1H         LINE#         205
  C:3EE3H         LINE#         206
  C:3EE3H         LINE#         207
  C:3F0EH         LINE#         208
  C:3F13H         LINE#         209
  C:3F16H         LINE#         210
  C:3F22H         LINE#         211
  -------         ENDPROC       FLASH_DIY
  -------         PROC          CON
  -------         DO            
  D:0007H         SYMBOL        i
  X:02F1H         SYMBOL        j
  -------         ENDDO         
  C:260DH         LINE#         214
  C:260DH         LINE#         215
  C:260DH         LINE#         220
  C:260FH         LINE#         221
  C:260FH         LINE#         222
  C:261EH         LINE#         223
  C:261EH         LINE#         224
  C:2638H         LINE#         225
  C:2640H         LINE#         226
  C:2645H         LINE#         230
  C:264AH         LINE#         231
  C:264AH         LINE#         232
  C:264CH         LINE#         233
  C:264CH         LINE#         234
  C:2691H         LINE#         235
  C:26D6H         LINE#         236
  C:271BH         LINE#         237
  C:2760H         LINE#         238
BL51 BANKED LINKER/LOCATER V6.22                                                      01/08/2019  21:00:42  PAGE 7


  C:27A5H         LINE#         239
  C:27EAH         LINE#         240
  C:282FH         LINE#         241
  C:2874H         LINE#         242
  C:287DH         LINE#         243
  C:288BH         LINE#         244
  C:2890H         LINE#         245
  C:2892H         LINE#         247
  C:2894H         LINE#         248
  C:2894H         LINE#         249
  C:2899H         LINE#         250
  C:2899H         LINE#         251
  C:28D5H         LINE#         252
  C:28DFH         LINE#         253
  C:28E4H         LINE#         254
  C:28E6H         LINE#         255
  -------         ENDPROC       CON
  -------         ENDMOD        CHAR

  -------         MODULE        FFT
  C:0000H         SYMBOL        _ICE_DUMMY_
  X:0000H         PUBLIC        Temp_Real
  X:0002H         PUBLIC        Fft_Real
  X:0102H         PUBLIC        LED_TAB
  D:00A8H         PUBLIC        IE
  D:00B8H         PUBLIC        IP
  C:2E29H         PUBLIC        COS_TAB
  C:2DA9H         PUBLIC        SIN_TAB
  D:00D8H         PUBLIC        CCON
  X:0112H         PUBLIC        maxa
  D:0098H         PUBLIC        SCON
  D:0088H         PUBLIC        TCON
  X:0114H         PUBLIC        temp
  C:16CBH         PUBLIC        FFT
  X:0116H         PUBLIC        b
  X:0117H         PUBLIC        Fft_Image
  X:0217H         PUBLIC        TEMP1
  X:0219H         PUBLIC        i
  X:021AH         PUBLIC        j
  X:021BH         PUBLIC        k
  X:021CH         PUBLIC        p
  C:2EA9H         PUBLIC        LIST_TAB
  X:021DH         PUBLIC        Temp_Imag
  D:00D0H         PUBLIC        PSW
  -------         PROC          FFT
  C:16CBH         LINE#         44
  C:16CBH         LINE#         45
  C:16CBH         LINE#         46
  C:16DEH         LINE#         47
  C:16DEH         LINE#         48
  C:16E4H         LINE#         49
  C:16F7H         LINE#         50
  C:170DH         LINE#         51
  C:170DH         LINE#         52
  C:1713H         LINE#         53
  C:172EH         LINE#         54
  C:173BH         LINE#         55
BL51 BANKED LINKER/LOCATER V6.22                                                      01/08/2019  21:00:42  PAGE 8


  C:174CH         LINE#         56
  C:174CH         LINE#         57
  C:1765H         LINE#         58
  C:177DH         LINE#         59
  C:17A0H         LINE#         60
  C:181AH         LINE#         61
  C:18A2H         LINE#         62
  C:1921H         LINE#         63
  C:1996H         LINE#         64
  C:19BBH         LINE#         65
  C:19DCH         LINE#         66
  C:1A07H         LINE#         67
  C:1A28H         LINE#         68
  C:1A35H         LINE#         69
  C:1A3EH         LINE#         70
  C:1A47H         LINE#         72
  C:1A59H         LINE#         73
  C:1A59H         LINE#         74
  C:1A9FH         LINE#         76
  C:1AAEH         LINE#         77
  C:1AC4H         LINE#         79
  C:1AE4H         LINE#         80
  C:1AEDH         LINE#         81
  C:1AFDH         LINE#         82
  C:1AFDH         LINE#         83
  C:1B13H         LINE#         84
  C:1B22H         LINE#         85
  C:1B49H         LINE#         87
  C:1B49H         LINE#         88
  -------         ENDPROC       FFT
  -------         ENDMOD        FFT

  -------         MODULE        FLASH
  C:0000H         SYMBOL        _ICE_DUMMY_
  C:3378H         PUBLIC        _box_apeak_xy
  C:4294H         PUBLIC        _clear
  D:00A8H         PUBLIC        IE
  C:332AH         PUBLIC        table_3p
  C:42CAH         PUBLIC        _delay
  C:0003H         PUBLIC        Delay7us
  C:4269H         PUBLIC        transss
  C:320EH         PUBLIC        table_cha
  D:00B8H         PUBLIC        IP
  C:28F1H         PUBLIC        _roll_3_xy
  C:39EFH         PUBLIC        flash_2
  C:35B5H         PUBLIC        flash_3
  D:00D8H         PUBLIC        CCON
  C:230DH         PUBLIC        flash_4
  C:002EH         PUBLIC        flash_5
  C:38EEH         PUBLIC        flash_6
  C:2A88H         PUBLIC        flash_7
  C:423BH         PUBLIC        flash_8
  C:0D0EH         PUBLIC        flash_9
  C:2C8DH         PUBLIC        _line
  C:3FB8H         PUBLIC        _trans
  C:000EH         PUBLIC        _abss
  C:3E56H         PUBLIC        _point
BL51 BANKED LINKER/LOCATER V6.22                                                      01/08/2019  21:00:42  PAGE 9


  C:3DF0H         PUBLIC        _cirp
  C:348CH         PUBLIC        _tranoutchar
  D:0098H         PUBLIC        SCON
  D:0088H         PUBLIC        TCON
  C:42E1H         PUBLIC        _abs
  C:324EH         PUBLIC        table_id
  C:3276H         PUBLIC        dat
  C:4325H         PUBLIC        _maxt
  C:40CAH         PUBLIC        _max
  C:1260H         PUBLIC        _box
  C:0790H         PUBLIC        flash_10
  C:309CH         PUBLIC        flash_11
  C:32F6H         PUBLIC        dat2
  C:3312H         PUBLIC        dat3
  C:2F2FH         PUBLIC        _roll_apeak_xy
  C:37EAH         PUBLIC        _roll_apeak_yz
  D:00D0H         PUBLIC        PSW
  -------         PROC          L?0564
  -------         ENDPROC       L?0564
  -------         PROC          _ABS
  D:0007H         SYMBOL        a
  -------         DO            
  D:0006H         SYMBOL        b
  -------         ENDDO         
  C:42E1H         LINE#         41
  C:42E1H         LINE#         42
  C:42E1H         LINE#         44
  C:42E7H         LINE#         45
  C:42EFH         LINE#         46
  C:42F4H         LINE#         47
  C:42F5H         LINE#         48
  C:42F7H         LINE#         49
  -------         ENDPROC       _ABS
  -------         PROC          _ABSS
  D:0007H         SYMBOL        a
  C:000EH         LINE#         53
  C:000EH         LINE#         54
  C:000EH         LINE#         55
  C:0016H         LINE#         56
  C:001AH         LINE#         57
  C:001AH         LINE#         58
  -------         ENDPROC       _ABSS
  -------         PROC          _MAX
  X:0308H         SYMBOL        a
  X:030BH         SYMBOL        b
  -------         DO            
  D:0006H         SYMBOL        t
  -------         ENDDO         
  C:40CAH         LINE#         64
  C:40D5H         LINE#         65
  C:40D5H         LINE#         67
  C:40F5H         LINE#         68
  C:40F5H         LINE#         69
  C:40F5H         LINE#         70
  C:40F9H         LINE#         71
  C:4108H         LINE#         72
  C:4108H         LINE#         73
BL51 BANKED LINKER/LOCATER V6.22                                                      01/08/2019  21:00:42  PAGE 10


  -------         ENDPROC       _MAX
  -------         PROC          _MAXT
  D:0007H         SYMBOL        a
  D:0005H         SYMBOL        b
  D:0003H         SYMBOL        c
  C:4325H         LINE#         77
  C:4325H         LINE#         78
  C:4325H         LINE#         80
  C:432AH         LINE#         81
  C:432CH         LINE#         82
  C:4331H         LINE#         83
  C:4333H         LINE#         84
  C:4333H         LINE#         85
  -------         ENDPROC       _MAXT
  -------         PROC          _CLEAR
  D:0007H         SYMBOL        le
  -------         DO            
  D:0005H         SYMBOL        i
  D:0006H         SYMBOL        j
  -------         ENDDO         
  C:4294H         LINE#         87
  C:4294H         LINE#         88
  C:4294H         LINE#         90
  C:4296H         LINE#         91
  C:4296H         LINE#         92
  C:4298H         LINE#         93
  C:4298H         LINE#         94
  C:42B2H         LINE#         95
  C:42B7H         LINE#         96
  C:42BCH         LINE#         97
  -------         ENDPROC       _CLEAR
  -------         PROC          _POINT
  D:0007H         SYMBOL        x
  D:0005H         SYMBOL        y
  D:0003H         SYMBOL        z
  X:0319H         SYMBOL        le
  -------         DO            
  X:031AH         SYMBOL        ch1
  X:031BH         SYMBOL        ch0
  -------         ENDDO         
  C:3E56H         LINE#         99
  C:3E56H         LINE#         101
  C:3E56H         LINE#         105
  C:3E65H         LINE#         107
  C:3E68H         LINE#         109
  C:3E6EH         LINE#         111
  C:3E95H         LINE#         115
  C:3EBFH         LINE#         117
  -------         ENDPROC       _POINT
  -------         PROC          L?0563
  -------         ENDPROC       L?0563
  -------         PROC          _CIRP
  D:0007H         SYMBOL        cpp
  D:0005H         SYMBOL        dir
  D:0001H         SYMBOL        le
  -------         DO            
  D:0005H         SYMBOL        a
BL51 BANKED LINKER/LOCATER V6.22                                                      01/08/2019  21:00:42  PAGE 11


  D:0006H         SYMBOL        b
  D:0003H         SYMBOL        c
  D:0004H         SYMBOL        cp
  -------         ENDDO         
  C:3DF0H         LINE#         127
  C:3DF2H         LINE#         129
  C:3DF2H         LINE#         133
  C:3E1BH         LINE#         135
  C:3E1BH         LINE#         137
  C:3E1EH         LINE#         139
  C:3E25H         LINE#         143
  C:3E27H         LINE#         145
  C:3E32H         LINE#         147
  C:3E38H         LINE#         149
  C:3E3DH         LINE#         151
  C:3E45H         LINE#         153
  C:3E49H         LINE#         155
  C:3E55H         LINE#         157
  C:3E55H         LINE#         159
  -------         ENDPROC       _CIRP
  -------         PROC          L?0555
  -------         ENDPROC       L?0555
  -------         PROC          _LINE
  D:0001H         SYMBOL        x1
  D:0002H         SYMBOL        y1
  D:0004H         SYMBOL        z1
  X:030BH         SYMBOL        x2
  X:030CH         SYMBOL        y2
  X:030DH         SYMBOL        z2
  X:030EH         SYMBOL        le
  -------         DO            
  X:030FH         SYMBOL        t
  X:0310H         SYMBOL        a
  X:0311H         SYMBOL        b
  X:0312H         SYMBOL        c
  X:0313H         SYMBOL        a1
  X:0314H         SYMBOL        b1
  X:0315H         SYMBOL        c1
  D:0002H         SYMBOL        i
  -------         ENDDO         
  C:2C8DH         LINE#         161
  C:2C93H         LINE#         163
  C:2C93H         LINE#         167
  C:2C9EH         LINE#         169
  C:2CA8H         LINE#         171
  C:2CB2H         LINE#         173
  C:2CD3H         LINE#         175
  C:2CDAH         LINE#         177
  C:2CE1H         LINE#         179
  C:2CE8H         LINE#         181
  C:2D0AH         LINE#         183
  C:2D21H         LINE#         185
  C:2D40H         LINE#         187
  C:2D50H         LINE#         189
  C:2D50H         LINE#         191
  C:2D71H         LINE#         193
  C:2D7CH         LINE#         195
BL51 BANKED LINKER/LOCATER V6.22                                                      01/08/2019  21:00:42  PAGE 12


  C:2D87H         LINE#         197
  C:2D92H         LINE#         199
  C:2D95H         LINE#         201
  -------         ENDPROC       _LINE
  C:124FH         SYMBOL        L?0557
  -------         PROC          L?0556
  -------         ENDPROC       L?0556
  C:124FH         SYMBOL        L?0557
  -------         PROC          _BOX
  X:02FFH         SYMBOL        x1
  X:0300H         SYMBOL        y1
  X:0301H         SYMBOL        z1
  X:0302H         SYMBOL        x2
  X:0303H         SYMBOL        y2
  X:0304H         SYMBOL        z2
  X:0305H         SYMBOL        fill
  X:0306H         SYMBOL        le
  -------         DO            
  D:0007H         SYMBOL        i
  D:0004H         SYMBOL        j
  X:0307H         SYMBOL        t
  -------         ENDDO         
  C:1260H         LINE#         205
  C:126BH         LINE#         206
  C:126BH         LINE#         208
  C:1270H         LINE#         209
  C:1286H         LINE#         210
  C:129DH         LINE#         211
  C:12B4H         LINE#         212
  C:12C3H         LINE#         213
  C:12DBH         LINE#         214
  C:12E2H         LINE#         215
  C:12E6H         LINE#         216
  C:12EFH         LINE#         217
  C:12EFH         LINE#         218
  C:12F2H         LINE#         219
  C:12F2H         LINE#         221
  C:1304H         LINE#         223
  C:1304H         LINE#         225
  C:1313H         LINE#         227
  C:1340H         LINE#         229
  C:1343H         LINE#         231
  C:1343H         LINE#         235
  C:1343H         LINE#         237
  C:1355H         LINE#         239
  C:1355H         LINE#         241
  C:1364H         LINE#         243
  C:1391H         LINE#         245
  C:1394H         LINE#         247
  C:1394H         LINE#         249
  C:1394H         LINE#         253
  C:1394H         LINE#         255
  C:13A0H         LINE#         257
  C:13A0H         LINE#         259
  C:13CFH         LINE#         261
  C:1401H         LINE#         263
  C:1433H         LINE#         265
BL51 BANKED LINKER/LOCATER V6.22                                                      01/08/2019  21:00:42  PAGE 13


  C:1460H         LINE#         267
  C:1463H         LINE#         271
  C:1463H         LINE#         273
  C:1492H         LINE#         275
  C:14C4H         LINE#         277
  C:14F6H         LINE#         279
  C:1528H         LINE#         281
  C:1528H         LINE#         283
  C:154EH         LINE#         285
  C:1555H         LINE#         287
  C:1559H         LINE#         289
  C:155FH         LINE#         291
  C:155FH         LINE#         293
  C:156EH         LINE#         295
  C:156EH         LINE#         297
  C:157DH         LINE#         299
  C:15AAH         LINE#         301
  C:15B9H         LINE#         303
  C:15CBH         LINE#         305
  C:15CBH         LINE#         307
  C:15DAH         LINE#         309
  C:1607H         LINE#         311
  C:1616H         LINE#         313
  C:1616H         LINE#         317
  C:1616H         LINE#         319
  C:1625H         LINE#         321
  C:1625H         LINE#         323
  C:1634H         LINE#         325
  C:1634H         LINE#         327
  C:165EH         LINE#         329
  C:1661H         LINE#         331
  C:1670H         LINE#         333
  C:167FH         LINE#         335
  C:167FH         LINE#         337
  C:168EH         LINE#         339
  C:168EH         LINE#         341
  C:16B8H         LINE#         343
  C:16BBH         LINE#         345
  C:16CAH         LINE#         347
  C:16CAH         LINE#         349
  C:16CAH         LINE#         351
  -------         ENDPROC       _BOX
  C:334FH         SYMBOL        L?0550
  C:3355H         SYMBOL        L?0551
  -------         PROC          L?0549
  -------         ENDPROC       L?0549
  C:334FH         SYMBOL        L?0550
  C:3355H         SYMBOL        L?0551
  -------         PROC          _BOX_APEAK_XY
  X:02FFH         SYMBOL        x1
  X:0300H         SYMBOL        y1
  X:0301H         SYMBOL        z1
  X:0302H         SYMBOL        x2
  X:0303H         SYMBOL        y2
  X:0304H         SYMBOL        z2
  X:0305H         SYMBOL        fill
  X:0306H         SYMBOL        le
BL51 BANKED LINKER/LOCATER V6.22                                                      01/08/2019  21:00:42  PAGE 14


  -------         DO            
  X:0307H         SYMBOL        i
  -------         ENDDO         
  C:3378H         LINE#         353
  C:3383H         LINE#         355
  C:3383H         LINE#         359
  C:339AH         LINE#         361
  C:33A0H         LINE#         363
  C:33A0H         LINE#         365
  C:33B8H         LINE#         367
  C:33B8H         LINE#         369
  C:33E3H         LINE#         371
  C:33EBH         LINE#         373
  C:33EBH         LINE#         377
  C:33EBH         LINE#         379
  C:3412H         LINE#         381
  C:343DH         LINE#         383
  C:3465H         LINE#         385
  C:348BH         LINE#         387
  C:348BH         LINE#         389
  -------         ENDPROC       _BOX_APEAK_XY
  C:37E4H         SYMBOL        L?0559
  -------         PROC          L?0558
  -------         ENDPROC       L?0558
  C:37E4H         SYMBOL        L?0559
  -------         PROC          _ROLL_APEAK_YZ
  D:0007H         SYMBOL        n
  X:02F4H         SYMBOL        speed
  -------         DO            
  X:02F6H         SYMBOL        i
  -------         ENDDO         
  C:37EAH         LINE#         391
  C:37F2H         LINE#         393
  C:37F2H         LINE#         397
  C:3809H         LINE#         399
  C:3809H         LINE#         401
  C:3809H         LINE#         403
  C:381BH         LINE#         405
  C:381BH         LINE#         407
  C:382BH         LINE#         409
  C:383CH         LINE#         411
  C:383FH         LINE#         413
  C:3847H         LINE#         415
  C:3847H         LINE#         417
  C:3847H         LINE#         419
  C:384CH         LINE#         421
  C:384CH         LINE#         423
  C:3867H         LINE#         425
  C:3876H         LINE#         427
  C:3879H         LINE#         429
  C:3886H         LINE#         431
  C:3886H         LINE#         433
  C:3886H         LINE#         435
  C:388BH         LINE#         437
  C:388BH         LINE#         439
  C:38A3H         LINE#         441
  C:38ABH         LINE#         443
BL51 BANKED LINKER/LOCATER V6.22                                                      01/08/2019  21:00:42  PAGE 15


  C:38AEH         LINE#         445
  C:38BBH         LINE#         447
  C:38BBH         LINE#         449
  C:38BBH         LINE#         451
  C:38CAH         LINE#         453
  C:38CAH         LINE#         455
  C:38D6H         LINE#         457
  C:38E2H         LINE#         459
  C:38E5H         LINE#         461
  C:38EDH         LINE#         463
  C:38EDH         LINE#         465
  -------         ENDPROC       _ROLL_APEAK_YZ
  C:2F29H         SYMBOL        L?0562
  -------         PROC          L?0561
  -------         ENDPROC       L?0561
  C:2F29H         SYMBOL        L?0562
  -------         PROC          _ROLL_APEAK_XY
  D:0007H         SYMBOL        n
  X:02FFH         SYMBOL        speed
  -------         DO            
  X:0301H         SYMBOL        i
  -------         ENDDO         
  C:2F2FH         LINE#         467
  C:2F37H         LINE#         469
  C:2F37H         LINE#         473
  C:2F4EH         LINE#         475
  C:2F4EH         LINE#         477
  C:2F4EH         LINE#         479
  C:2F53H         LINE#         481
  C:2F53H         LINE#         483
  C:2F6CH         LINE#         485
  C:2F87H         LINE#         487
  C:2F8DH         LINE#         489
  C:2F9AH         LINE#         491
  C:2F9AH         LINE#         493
  C:2F9AH         LINE#         495
  C:2FACH         LINE#         497
  C:2FACH         LINE#         499
  C:2FC0H         LINE#         501
  C:2FE2H         LINE#         503
  C:2FE8H         LINE#         505
  C:2FF0H         LINE#         507
  C:2FF0H         LINE#         509
  C:2FF0H         LINE#         511
  C:3002H         LINE#         513
  C:3002H         LINE#         515
  C:301DH         LINE#         517
  C:303CH         LINE#         519
  C:3042H         LINE#         521
  C:304AH         LINE#         523
  C:304AH         LINE#         525
  C:304AH         LINE#         527
  C:3059H         LINE#         529
  C:3059H         LINE#         531
  C:3071H         LINE#         533
  C:308DH         LINE#         535
  C:3093H         LINE#         537
BL51 BANKED LINKER/LOCATER V6.22                                                      01/08/2019  21:00:42  PAGE 16


  C:309BH         LINE#         539
  C:309BH         LINE#         541
  -------         ENDPROC       _ROLL_APEAK_XY
  -------         PROC          L?0560
  -------         ENDPROC       L?0560
  -------         PROC          _ROLL_3_XY
  D:0007H         SYMBOL        n
  X:02F3H         SYMBOL        speed
  -------         DO            
  X:02F5H         SYMBOL        i
  -------         ENDDO         
  C:28F1H         LINE#         543
  C:28F9H         LINE#         545
  C:28F9H         LINE#         549
  C:2910H         LINE#         551
  C:2910H         LINE#         553
  C:2910H         LINE#         555
  C:2915H         LINE#         557
  C:2915H         LINE#         559
  C:2934H         LINE#         561
  C:293AH         LINE#         563
  C:2944H         LINE#         565
  C:295FH         LINE#         567
  C:296CH         LINE#         569
  C:296CH         LINE#         571
  C:296CH         LINE#         573
  C:2971H         LINE#         575
  C:2971H         LINE#         577
  C:2992H         LINE#         579
  C:2998H         LINE#         581
  C:29A2H         LINE#         583
  C:29BCH         LINE#         585
  C:29C9H         LINE#         587
  C:29C9H         LINE#         589
  C:29C9H         LINE#         591
  C:29CEH         LINE#         593
  C:29CEH         LINE#         595
  C:29EDH         LINE#         597
  C:29F3H         LINE#         599
  C:29FDH         LINE#         601
  C:2A1AH         LINE#         603
  C:2A27H         LINE#         605
  C:2A27H         LINE#         607
  C:2A27H         LINE#         609
  C:2A2CH         LINE#         611
  C:2A2CH         LINE#         613
  C:2A4DH         LINE#         615
  C:2A53H         LINE#         617
  C:2A5DH         LINE#         619
  C:2A7BH         LINE#         621
  C:2A87H         LINE#         623
  C:2A87H         LINE#         625
  -------         ENDPROC       _ROLL_3_XY
  -------         PROC          _TRANS
  X:02F4H         SYMBOL        z
  X:02F5H         SYMBOL        speed
  -------         DO            
BL51 BANKED LINKER/LOCATER V6.22                                                      01/08/2019  21:00:42  PAGE 17


  D:0007H         SYMBOL        i
  X:02F7H         SYMBOL        j
  -------         ENDDO         
  C:3FB8H         LINE#         627
  C:3FC3H         LINE#         629
  C:3FC3H         LINE#         633
  C:3FC6H         LINE#         635
  C:3FC6H         LINE#         637
  C:3FC8H         LINE#         639
  C:3FC8H         LINE#         641
  C:3FE7H         LINE#         643
  C:3FECH         LINE#         645
  C:3FF2H         LINE#         647
  C:3FFEH         LINE#         649
  -------         ENDPROC       _TRANS
  -------         PROC          _TRANOUTCHAR
  X:02F1H         SYMBOL        c
  X:02F2H         SYMBOL        speed
  -------         DO            
  X:02F4H         SYMBOL        i
  D:0004H         SYMBOL        j
  D:0007H         SYMBOL        k
  X:02F5H         SYMBOL        a
  X:02F6H         SYMBOL        i2
  -------         ENDDO         
  C:348CH         LINE#         651
  C:3497H         LINE#         653
  C:3497H         LINE#         655
  C:349CH         LINE#         657
  C:34ADH         LINE#         659
  C:34ADH         LINE#         661
  C:34B3H         LINE#         663
  C:34CCH         LINE#         665
  C:34E7H         LINE#         667
  C:34ECH         LINE#         669
  C:34F5H         LINE#         671
  C:3501H         LINE#         673
  C:3501H         LINE#         675
  C:3515H         LINE#         677
  C:3518H         LINE#         679
  C:351AH         LINE#         681
  C:351AH         LINE#         683
  C:355BH         LINE#         685
  C:359CH         LINE#         687
  C:35A5H         LINE#         689
  C:35ABH         LINE#         691
  C:35B4H         LINE#         693
  -------         ENDPROC       _TRANOUTCHAR
  -------         PROC          TRANSSS
  -------         DO            
  D:0007H         SYMBOL        i
  D:0006H         SYMBOL        j
  -------         ENDDO         
  C:4269H         LINE#         695
  C:4269H         LINE#         697
  C:4269H         LINE#         701
  C:426BH         LINE#         703
BL51 BANKED LINKER/LOCATER V6.22                                                      01/08/2019  21:00:42  PAGE 18


  C:426BH         LINE#         705
  C:426DH         LINE#         707
  C:428EH         LINE#         709
  C:4293H         LINE#         711
  -------         ENDPROC       TRANSSS
  -------         PROC          FLASH_2
  -------         DO            
  X:02F0H         SYMBOL        i
  -------         ENDDO         
  C:39EFH         LINE#         713
  C:39EFH         LINE#         715
  C:39EFH         LINE#         717
  C:39FFH         LINE#         718
  C:39FFH         LINE#         719
  C:3A02H         LINE#         720
  C:3A09H         LINE#         721
  C:3A15H         LINE#         722
  C:3A1DH         LINE#         723
  C:3A24H         LINE#         724
  C:3A33H         LINE#         725
  C:3A33H         LINE#         726
  C:3A3AH         LINE#         727
  C:3A41H         LINE#         728
  C:3A4FH         LINE#         729
  C:3A57H         LINE#         730
  C:3A5EH         LINE#         731
  C:3A6EH         LINE#         732
  C:3A6EH         LINE#         733
  C:3A71H         LINE#         734
  C:3A78H         LINE#         735
  C:3A80H         LINE#         736
  C:3A87H         LINE#         737
  C:3A96H         LINE#         738
  C:3A96H         LINE#         739
  C:3AA1H         LINE#         740
  C:3AA8H         LINE#         741
  C:3AB0H         LINE#         742
  -------         ENDPROC       FLASH_2
  -------         PROC          FLASH_3
  -------         DO            
  X:02F0H         SYMBOL        i
  -------         ENDDO         
  C:35B5H         LINE#         745
  C:35B5H         LINE#         747
  C:35B5H         LINE#         751
  C:35BAH         LINE#         753
  C:35BAH         LINE#         755
  C:35D8H         LINE#         757
  C:35DFH         LINE#         759
  C:35EAH         LINE#         761
  C:3605H         LINE#         763
  C:3613H         LINE#         765
  C:3619H         LINE#         767
  C:3619H         LINE#         769
  C:3637H         LINE#         771
  C:363EH         LINE#         773
  C:3649H         LINE#         775
BL51 BANKED LINKER/LOCATER V6.22                                                      01/08/2019  21:00:42  PAGE 19


  C:3664H         LINE#         777
  C:3672H         LINE#         779
  C:3677H         LINE#         781
  C:3677H         LINE#         783
  C:3695H         LINE#         785
  C:369CH         LINE#         787
  C:36A7H         LINE#         789
  C:36C2H         LINE#         791
  C:36D0H         LINE#         793
  -------         ENDPROC       FLASH_3
  -------         PROC          FLASH_4
  -------         DO            
  X:02F0H         SYMBOL        i
  X:02F1H         SYMBOL        j
  X:02F2H         SYMBOL        an
  -------         ENDDO         
  C:230DH         LINE#         795
  C:230DH         LINE#         797
  C:230DH         LINE#         801
  C:231FH         LINE#         803
  C:2339H         LINE#         805
  C:233EH         LINE#         807
  C:233EH         LINE#         809
  C:234FH         LINE#         811
  C:234FH         LINE#         813
  C:237FH         LINE#         815
  C:23AFH         LINE#         817
  C:23B7H         LINE#         819
  C:23C8H         LINE#         821
  C:23C8H         LINE#         823
  C:2408H         LINE#         825
  C:2437H         LINE#         827
  C:2440H         LINE#         829
  C:2451H         LINE#         831
  C:2451H         LINE#         833
  C:2468H         LINE#         835
  C:2475H         LINE#         837
  C:247DH         LINE#         839
  C:2484H         LINE#         841
  C:2495H         LINE#         843
  C:249AH         LINE#         845
  C:24C0H         LINE#         847
  C:24C5H         LINE#         849
  C:24C5H         LINE#         851
  C:24D6H         LINE#         853
  C:24D6H         LINE#         855
  C:2506H         LINE#         857
  C:2536H         LINE#         859
  C:253EH         LINE#         861
  C:254FH         LINE#         863
  C:254FH         LINE#         865
  C:2580H         LINE#         867
  C:25AFH         LINE#         869
  C:25B7H         LINE#         871
  C:25C8H         LINE#         873
  C:25C8H         LINE#         875
  C:25DFH         LINE#         877
BL51 BANKED LINKER/LOCATER V6.22                                                      01/08/2019  21:00:42  PAGE 20


  C:25ECH         LINE#         879
  C:25F4H         LINE#         881
  C:25FBH         LINE#         883
  C:260CH         LINE#         885
  -------         ENDPROC       FLASH_4
  -------         PROC          FLASH_5
  -------         DO            
  X:02F0H         SYMBOL        a
  X:02F2H         SYMBOL        i
  X:02F3H         SYMBOL        j
  X:02F4H         SYMBOL        an
  -------         ENDDO         
  C:002EH         LINE#         887
  C:002EH         LINE#         889
  C:002EH         LINE#         891
  C:0038H         LINE#         893
  C:003CH         LINE#         897
  C:004BH         LINE#         899
  C:0065H         LINE#         901
  C:0072H         LINE#         903
  C:0072H         LINE#         905
  C:0081H         LINE#         907
  C:0081H         LINE#         909
  C:0099H         LINE#         911
  C:009CH         LINE#         913
  C:00B8H         LINE#         915
  C:00D7H         LINE#         917
  C:00E0H         LINE#         919
  C:00F1H         LINE#         921
  C:00F1H         LINE#         923
  C:0108H         LINE#         925
  C:0115H         LINE#         927
  C:011DH         LINE#         929
  C:0123H         LINE#         931
  C:0126H         LINE#         935
  C:012CH         LINE#         937
  C:012FH         LINE#         939
  C:0155H         LINE#         941
  C:0162H         LINE#         943
  C:0162H         LINE#         945
  C:0172H         LINE#         947
  C:0172H         LINE#         949
  C:018AH         LINE#         951
  C:018DH         LINE#         953
  C:01A9H         LINE#         955
  C:01C8H         LINE#         957
  C:01D1H         LINE#         959
  C:01E2H         LINE#         961
  C:01E2H         LINE#         963
  C:01F9H         LINE#         965
  C:0206H         LINE#         967
  C:020EH         LINE#         969
  C:0214H         LINE#         971
  C:0217H         LINE#         975
  C:021DH         LINE#         977
  C:0221H         LINE#         979
  C:0247H         LINE#         981
BL51 BANKED LINKER/LOCATER V6.22                                                      01/08/2019  21:00:42  PAGE 21


  C:0254H         LINE#         983
  C:0254H         LINE#         985
  C:0264H         LINE#         987
  C:0264H         LINE#         989
  C:027CH         LINE#         991
  C:027FH         LINE#         993
  C:029BH         LINE#         995
  C:02B9H         LINE#         997
  C:02C2H         LINE#         999
  C:02D4H         LINE#         1001
  C:02D4H         LINE#         1003
  C:02EBH         LINE#         1005
  C:02F8H         LINE#         1007
  C:0300H         LINE#         1009
  C:0306H         LINE#         1011
  C:0309H         LINE#         1017
  C:030FH         LINE#         1019
  C:0312H         LINE#         1021
  C:0335H         LINE#         1023
  C:0342H         LINE#         1025
  C:0342H         LINE#         1027
  C:0352H         LINE#         1029
  C:0352H         LINE#         1031
  C:036AH         LINE#         1033
  C:036DH         LINE#         1035
  C:0389H         LINE#         1037
  C:03A7H         LINE#         1039
  C:03B0H         LINE#         1041
  C:03C1H         LINE#         1043
  C:03DBH         LINE#         1045
  C:03E1H         LINE#         1047
  C:03E4H         LINE#         1051
  C:03EAH         LINE#         1053
  C:03F8H         LINE#         1055
  C:0412H         LINE#         1057
  C:041FH         LINE#         1059
  C:041FH         LINE#         1061
  C:0423H         LINE#         1063
  C:0423H         LINE#         1065
  C:0433H         LINE#         1067
  C:0466H         LINE#         1069
  C:0474H         LINE#         1071
  C:0485H         LINE#         1073
  C:0485H         LINE#         1075
  C:049CH         LINE#         1077
  C:04A9H         LINE#         1079
  C:04B1H         LINE#         1081
  C:04B7H         LINE#         1083
  C:04BAH         LINE#         1087
  C:04C0H         LINE#         1089
  C:04C3H         LINE#         1091
  C:04E9H         LINE#         1093
  C:04F6H         LINE#         1095
  C:04F6H         LINE#         1097
  C:0506H         LINE#         1099
  C:0506H         LINE#         1101
  C:051EH         LINE#         1103
BL51 BANKED LINKER/LOCATER V6.22                                                      01/08/2019  21:00:42  PAGE 22


  C:0521H         LINE#         1105
  C:053DH         LINE#         1107
  C:055CH         LINE#         1109
  C:0565H         LINE#         1111
  C:0576H         LINE#         1113
  C:0576H         LINE#         1115
  C:058DH         LINE#         1117
  C:059AH         LINE#         1119
  C:05A2H         LINE#         1121
  C:05A8H         LINE#         1123
  C:05ABH         LINE#         1127
  C:05B1H         LINE#         1129
  C:05B4H         LINE#         1131
  C:05DAH         LINE#         1133
  C:05E0H         LINE#         1135
  C:05EDH         LINE#         1137
  C:05EDH         LINE#         1139
  C:05FCH         LINE#         1141
  C:05FCH         LINE#         1143
  C:0614H         LINE#         1145
  C:0617H         LINE#         1147
  C:0633H         LINE#         1149
  C:0651H         LINE#         1151
  C:065AH         LINE#         1153
  C:066BH         LINE#         1155
  C:066BH         LINE#         1157
  C:067EH         LINE#         1159
  C:0691H         LINE#         1161
  C:0699H         LINE#         1163
  C:069FH         LINE#         1165
  C:06A2H         LINE#         1169
  C:06A8H         LINE#         1171
  C:06ABH         LINE#         1173
  C:06CFH         LINE#         1175
  C:06DCH         LINE#         1177
  C:06DCH         LINE#         1179
  C:06EBH         LINE#         1181
  C:06EBH         LINE#         1183
  C:0703H         LINE#         1185
  C:0706H         LINE#         1187
  C:0722H         LINE#         1189
  C:0740H         LINE#         1191
  C:0749H         LINE#         1193
  C:075AH         LINE#         1195
  C:075AH         LINE#         1197
  C:0771H         LINE#         1199
  C:077EH         LINE#         1201
  C:0786H         LINE#         1203
  C:078CH         LINE#         1205
  C:078FH         LINE#         1207
  -------         ENDPROC       FLASH_5
  -------         PROC          FLASH_6
  -------         DO            
  X:02F0H         SYMBOL        i
  X:02F1H         SYMBOL        j
  X:02F2H         SYMBOL        k
  X:02F3H         SYMBOL        z
BL51 BANKED LINKER/LOCATER V6.22                                                      01/08/2019  21:00:42  PAGE 23


  -------         ENDDO         
  C:38EEH         LINE#         1209
  C:38EEH         LINE#         1211
  C:38EEH         LINE#         1215
  C:38F1H         LINE#         1217
  C:38FAH         LINE#         1219
  C:3903H         LINE#         1221
  C:390CH         LINE#         1223
  C:390FH         LINE#         1225
  C:3918H         LINE#         1227
  C:3921H         LINE#         1229
  C:3926H         LINE#         1231
  C:3926H         LINE#         1233
  C:392BH         LINE#         1235
  C:392BH         LINE#         1237
  C:393DH         LINE#         1239
  C:393DH         LINE#         1241
  C:396CH         LINE#         1243
  C:396CH         LINE#         1245
  C:397CH         LINE#         1247
  C:397CH         LINE#         1249
  C:3992H         LINE#         1251
  C:399AH         LINE#         1253
  C:39AFH         LINE#         1255
  C:39B6H         LINE#         1257
  C:39BEH         LINE#         1259
  C:39BEH         LINE#         1261
  C:39C7H         LINE#         1263
  C:39D6H         LINE#         1265
  C:39DFH         LINE#         1267
  C:39EEH         LINE#         1269
  -------         ENDPROC       FLASH_6
  -------         PROC          FLASH_7
  -------         DO            
  X:02F0H         SYMBOL        i
  X:02F1H         SYMBOL        a
  -------         ENDDO         
  C:2A88H         LINE#         1271
  C:2A88H         LINE#         1273
  C:2A88H         LINE#         1277
  C:2A92H         LINE#         1279
  C:2A9BH         LINE#         1281
  C:2A9EH         LINE#         1283
  C:2AA7H         LINE#         1285
  C:2AB0H         LINE#         1287
  C:2AB9H         LINE#         1289
  C:2ABCH         LINE#         1291
  C:2AC5H         LINE#         1293
  C:2ACEH         LINE#         1295
  C:2AD7H         LINE#         1297
  C:2ADAH         LINE#         1299
  C:2AE3H         LINE#         1301
  C:2AECH         LINE#         1303
  C:2AEFH         LINE#         1305
  C:2AF8H         LINE#         1307
  C:2B01H         LINE#         1309
  C:2B0AH         LINE#         1311
BL51 BANKED LINKER/LOCATER V6.22                                                      01/08/2019  21:00:42  PAGE 24


  C:2B0DH         LINE#         1313
  C:2B16H         LINE#         1315
  C:2B1FH         LINE#         1317
  C:2B2EH         LINE#         1319
  C:2B2EH         LINE#         1321
  C:2B4BH         LINE#         1323
  C:2B51H         LINE#         1325
  C:2B59H         LINE#         1327
  C:2B60H         LINE#         1329
  C:2B6DH         LINE#         1331
  C:2B74H         LINE#         1333
  C:2B77H         LINE#         1335
  C:2B7EH         LINE#         1337
  C:2B8BH         LINE#         1339
  C:2B92H         LINE#         1341
  C:2B9FH         LINE#         1343
  C:2BA6H         LINE#         1345
  C:2BB3H         LINE#         1347
  C:2BBAH         LINE#         1349
  C:2BBDH         LINE#         1351
  C:2BC4H         LINE#         1353
  C:2BD1H         LINE#         1355
  C:2BD8H         LINE#         1357
  C:2BE5H         LINE#         1359
  C:2BEBH         LINE#         1361
  C:2BEBH         LINE#         1363
  C:2C06H         LINE#         1365
  C:2C0CH         LINE#         1367
  C:2C18H         LINE#         1369
  -------         ENDPROC       FLASH_7
  -------         PROC          FLASH_8
  -------         DO            
  X:02F0H         SYMBOL        i
  -------         ENDDO         
  C:423BH         LINE#         1371
  C:423BH         LINE#         1373
  C:423BH         LINE#         1377
  C:424BH         LINE#         1379
  C:424BH         LINE#         1381
  C:4252H         LINE#         1383
  C:4259H         LINE#         1385
  C:4260H         LINE#         1387
  C:4268H         LINE#         1389
  -------         ENDPROC       FLASH_8
  -------         PROC          FLASH_9
  -------         DO            
  X:02F0H         SYMBOL        i
  X:02F1H         SYMBOL        j
  X:02F2H         SYMBOL        an
  X:02FAH         SYMBOL        x
  X:02FBH         SYMBOL        y
  X:02FCH         SYMBOL        t
  X:02FDH         SYMBOL        x1
  X:02FEH         SYMBOL        y1
  -------         ENDDO         
  C:0D0EH         LINE#         1391
  C:0D0EH         LINE#         1393
BL51 BANKED LINKER/LOCATER V6.22                                                      01/08/2019  21:00:42  PAGE 25


  C:0D0EH         LINE#         1399
  C:0D13H         LINE#         1401
  C:0D13H         LINE#         1403
  C:0D2EH         LINE#         1405
  C:0D34H         LINE#         1407
  C:0D4CH         LINE#         1409
  C:0D53H         LINE#         1411
  C:0D61H         LINE#         1413
  C:0D6AH         LINE#         1415
  C:0D73H         LINE#         1417
  C:0D76H         LINE#         1419
  C:0D7BH         LINE#         1421
  C:0D7BH         LINE#         1423
  C:0D9DH         LINE#         1425
  C:0DB5H         LINE#         1427
  C:0DBCH         LINE#         1429
  C:0DCAH         LINE#         1431
  C:0DDBH         LINE#         1433
  C:0DF5H         LINE#         1435
  C:0DFAH         LINE#         1437
  C:0DFAH         LINE#         1439
  C:0DFFH         LINE#         1441
  C:0E04H         LINE#         1443
  C:0E04H         LINE#         1445
  C:0E04H         LINE#         1447
  C:0E04H         LINE#         1449
  C:0E04H         LINE#         1451
  C:0E04H         LINE#         1453
  C:0E04H         LINE#         1455
  C:0E04H         LINE#         1457
  C:0E07H         LINE#         1459
  C:0E13H         LINE#         1461
  C:0E22H         LINE#         1463
  C:0E22H         LINE#         1465
  C:0E5AH         LINE#         1467
  C:0E67H         LINE#         1469
  C:0E6FH         LINE#         1471
  C:0E76H         LINE#         1473
  C:0E87H         LINE#         1475
  C:0E8CH         LINE#         1477
  C:0E8CH         LINE#         1479
  C:0E91H         LINE#         1481
  C:0E96H         LINE#         1483
  C:0E96H         LINE#         1485
  C:0E96H         LINE#         1487
  C:0E96H         LINE#         1489
  C:0E96H         LINE#         1491
  C:0E96H         LINE#         1493
  C:0E96H         LINE#         1495
  C:0E96H         LINE#         1497
  C:0E99H         LINE#         1499
  C:0EA5H         LINE#         1501
  C:0EB4H         LINE#         1503
  C:0EB4H         LINE#         1505
  C:0EECH         LINE#         1507
  C:0EF9H         LINE#         1509
  C:0F01H         LINE#         1511
BL51 BANKED LINKER/LOCATER V6.22                                                      01/08/2019  21:00:42  PAGE 26


  C:0F08H         LINE#         1513
  C:0F19H         LINE#         1515
  C:0F1EH         LINE#         1517
  C:0F1EH         LINE#         1519
  C:0F23H         LINE#         1523
  C:0F32H         LINE#         1525
  C:0F41H         LINE#         1527
  C:0F49H         LINE#         1529
  C:0F5BH         LINE#         1531
  C:0F6AH         LINE#         1533
  C:0F72H         LINE#         1535
  C:0F8DH         LINE#         1537
  C:0FB3H         LINE#         1539
  C:0FB9H         LINE#         1541
  C:0FC0H         LINE#         1543
  C:0FD1H         LINE#         1545
  C:0FD6H         LINE#         1547
  C:0FD6H         LINE#         1549
  C:0FDBH         LINE#         1553
  C:0FEAH         LINE#         1555
  C:0FF9H         LINE#         1557
  C:1001H         LINE#         1559
  C:1013H         LINE#         1561
  C:1022H         LINE#         1563
  C:102AH         LINE#         1565
  C:1045H         LINE#         1567
  C:104BH         LINE#         1569
  C:1052H         LINE#         1571
  C:1063H         LINE#         1573
  C:1074H         LINE#         1575
  C:1074H         LINE#         1577
  C:1088H         LINE#         1579
  C:108FH         LINE#         1581
  C:1097H         LINE#         1583
  C:10A9H         LINE#         1585
  C:10A9H         LINE#         1587
  C:10BFH         LINE#         1589
  C:10C6H         LINE#         1591
  C:10CEH         LINE#         1593
  C:10D4H         LINE#         1595
  C:10D4H         LINE#         1597
  C:10D9H         LINE#         1599
  C:10F9H         LINE#         1601
  C:1100H         LINE#         1603
  C:110EH         LINE#         1605
  C:1114H         LINE#         1607
  C:1114H         LINE#         1609
  C:1119H         LINE#         1611
  C:1137H         LINE#         1613
  C:113EH         LINE#         1615
  C:114CH         LINE#         1617
  C:1152H         LINE#         1619
  C:1152H         LINE#         1621
  C:1157H         LINE#         1623
  C:116FH         LINE#         1625
  C:1176H         LINE#         1627
  C:1184H         LINE#         1629
BL51 BANKED LINKER/LOCATER V6.22                                                      01/08/2019  21:00:42  PAGE 27


  C:118AH         LINE#         1631
  C:118AH         LINE#         1633
  C:118FH         LINE#         1635
  C:11AEH         LINE#         1637
  C:11B5H         LINE#         1639
  C:11C3H         LINE#         1641
  C:11D5H         LINE#         1643
  C:11D5H         LINE#         1645
  C:11F2H         LINE#         1647
  C:11F9H         LINE#         1649
  C:1201H         LINE#         1651
  C:1207H         LINE#         1653
  C:1207H         LINE#         1655
  C:120CH         LINE#         1657
  C:122FH         LINE#         1659
  C:1236H         LINE#         1661
  C:1244H         LINE#         1663
  -------         ENDPROC       FLASH_9
  -------         PROC          FLASH_10
  -------         DO            
  X:02F0H         SYMBOL        i
  X:02F1H         SYMBOL        j
  X:02F2H         SYMBOL        an
  X:02F6H         SYMBOL        x
  X:02F7H         SYMBOL        y
  X:02F8H         SYMBOL        t
  -------         ENDDO         
  C:0790H         LINE#         1665
  C:0790H         LINE#         1667
  C:0790H         LINE#         1671
  C:0796H         LINE#         1673
  C:0796H         LINE#         1677
  C:0796H         LINE#         1679
  C:0799H         LINE#         1681
  C:07C1H         LINE#         1683
  C:07CDH         LINE#         1685
  C:07F2H         LINE#         1687
  C:0819H         LINE#         1689
  C:0840H         LINE#         1691
  C:086AH         LINE#         1693
  C:088EH         LINE#         1695
  C:0895H         LINE#         1697
  C:08A4H         LINE#         1699
  C:08A9H         LINE#         1701
  C:08A9H         LINE#         1703
  C:08BFH         LINE#         1705
  C:08C9H         LINE#         1707
  C:08CEH         LINE#         1709
  C:08CEH         LINE#         1711
  C:08D3H         LINE#         1713
  C:08E2H         LINE#         1715
  C:08E2H         LINE#         1717
  C:08F7H         LINE#         1719
  C:0904H         LINE#         1721
  C:0909H         LINE#         1723
  C:092CH         LINE#         1725
  C:0951H         LINE#         1727
BL51 BANKED LINKER/LOCATER V6.22                                                      01/08/2019  21:00:42  PAGE 28


  C:095AH         LINE#         1729
  C:0969H         LINE#         1731
  C:097EH         LINE#         1733
  C:0985H         LINE#         1735
  C:0994H         LINE#         1737
  C:0999H         LINE#         1739
  C:0999H         LINE#         1741
  C:099EH         LINE#         1743
  C:09ADH         LINE#         1745
  C:09ADH         LINE#         1747
  C:09C2H         LINE#         1749
  C:09CFH         LINE#         1751
  C:09D4H         LINE#         1753
  C:09F7H         LINE#         1755
  C:0A1CH         LINE#         1757
  C:0A25H         LINE#         1759
  C:0A34H         LINE#         1761
  C:0A49H         LINE#         1763
  C:0A50H         LINE#         1765
  C:0A5FH         LINE#         1767
  C:0A64H         LINE#         1769
  C:0A64H         LINE#         1771
  C:0A69H         LINE#         1773
  C:0A78H         LINE#         1775
  C:0A78H         LINE#         1777
  C:0A8DH         LINE#         1779
  C:0A9AH         LINE#         1781
  C:0A9FH         LINE#         1783
  C:0AC4H         LINE#         1785
  C:0AE9H         LINE#         1787
  C:0AF2H         LINE#         1789
  C:0B01H         LINE#         1791
  C:0B16H         LINE#         1793
  C:0B1DH         LINE#         1795
  C:0B2CH         LINE#         1797
  C:0B31H         LINE#         1799
  C:0B31H         LINE#         1801
  C:0B36H         LINE#         1803
  C:0B45H         LINE#         1805
  C:0B45H         LINE#         1807
  C:0B5AH         LINE#         1809
  C:0B67H         LINE#         1811
  C:0B6CH         LINE#         1813
  C:0B91H         LINE#         1815
  C:0BB6H         LINE#         1817
  C:0BBFH         LINE#         1819
  C:0BCEH         LINE#         1821
  C:0BE3H         LINE#         1823
  C:0BEAH         LINE#         1825
  C:0BF9H         LINE#         1827
  C:0BFFH         LINE#         1828
  C:0BFFH         LINE#         1830
  C:0BFFH         LINE#         1832
  C:0C02H         LINE#         1834
  C:0C2AH         LINE#         1836
  C:0C36H         LINE#         1838
  C:0C5BH         LINE#         1840
BL51 BANKED LINKER/LOCATER V6.22                                                      01/08/2019  21:00:42  PAGE 29


  C:0C82H         LINE#         1842
  C:0CA9H         LINE#         1844
  C:0CD3H         LINE#         1846
  C:0CF7H         LINE#         1848
  C:0CFEH         LINE#         1850
  C:0D0DH         LINE#         1852
  -------         ENDPROC       FLASH_10
  -------         PROC          FLASH_11
  -------         DO            
  X:02F0H         SYMBOL        i
  X:02F1H         SYMBOL        j
  X:02F2H         SYMBOL        t
  X:02F3H         SYMBOL        x
  X:02F4H         SYMBOL        y
  C:3342H         SYMBOL        daa
  -------         ENDDO         
  C:309CH         LINE#         1854
  C:309CH         LINE#         1855
  C:309CH         LINE#         1858
  C:30A1H         LINE#         1859
  C:30A1H         LINE#         1860
  C:30B0H         LINE#         1862
  C:30B0H         LINE#         1864
  C:30BBH         LINE#         1866
  C:30BBH         LINE#         1868
  C:30C2H         LINE#         1870
  C:30DAH         LINE#         1872
  C:30DCH         LINE#         1875
  C:30DCH         LINE#         1876
  C:30E8H         LINE#         1877
  C:30E8H         LINE#         1879
  C:3103H         LINE#         1880
  C:3106H         LINE#         1881
  C:310DH         LINE#         1882
  C:3115H         LINE#         1883
  C:3121H         LINE#         1884
  C:3131H         LINE#         1886
  C:3131H         LINE#         1888
  C:3136H         LINE#         1889
  C:3136H         LINE#         1891
  C:313AH         LINE#         1892
  C:313CH         LINE#         1894
  C:313CH         LINE#         1895
  C:3141H         LINE#         1896
  C:3141H         LINE#         1897
  C:3150H         LINE#         1898
  C:3150H         LINE#         1900
  C:315DH         LINE#         1902
  C:3163H         LINE#         1904
  C:3180H         LINE#         1906
  C:3183H         LINE#         1908
  C:318AH         LINE#         1910
  C:3197H         LINE#         1912
  C:319FH         LINE#         1914
  C:31AFH         LINE#         1915
  C:31AFH         LINE#         1917
  C:31B4H         LINE#         1918
BL51 BANKED LINKER/LOCATER V6.22                                                      01/08/2019  21:00:42  PAGE 30


  C:31B4H         LINE#         1919
  C:31B8H         LINE#         1920
  C:31BAH         LINE#         1922
  C:31BAH         LINE#         1923
  C:31BFH         LINE#         1924
  C:31BFH         LINE#         1925
  C:31CEH         LINE#         1927
  C:31CEH         LINE#         1929
  C:31DDH         LINE#         1931
  C:31E3H         LINE#         1933
  C:31EEH         LINE#         1935
  C:31F1H         LINE#         1937
  C:31F8H         LINE#         1939
  C:3205H         LINE#         1941
  C:320DH         LINE#         1943
  -------         ENDPROC       FLASH_11
  -------         PROC          DELAY7US
  -------         DO            
  D:0007H         SYMBOL        i
  -------         ENDDO         
  C:0003H         LINE#         1946
  C:0003H         LINE#         1947
  C:0003H         LINE#         1950
  C:0004H         LINE#         1951
  C:0005H         LINE#         1952
  C:0006H         LINE#         1953
  C:0008H         LINE#         1954
  C:000AH         LINE#         1955
  -------         ENDPROC       DELAY7US
  C:42BDH         SYMBOL        L?0553
  C:42C5H         SYMBOL        L?0554
  -------         PROC          L?0552
  -------         ENDPROC       L?0552
  C:42BDH         SYMBOL        L?0553
  C:42C5H         SYMBOL        L?0554
  -------         PROC          _DELAY
  D:0004H         SYMBOL        i
  C:42CAH         LINE#         1958
  C:42CEH         LINE#         1959
  C:42CEH         LINE#         1961
  C:42D8H         LINE#         1962
  C:42D8H         LINE#         1963
  C:42DBH         LINE#         1964
  C:42DDH         LINE#         1965
  -------         ENDPROC       _DELAY
  -------         ENDMOD        FLASH

  -------         MODULE        HC573
  C:0000H         SYMBOL        _ICE_DUMMY_
  D:0080H         PUBLIC        P0
  D:00A0H         PUBLIC        P2
  B:00A0H.7       PUBLIC        cs1
  B:00A0H.6       PUBLIC        cs2
  B:00A0H.5       PUBLIC        cs3
  B:00A0H.4       PUBLIC        cs4
  B:00A0H.3       PUBLIC        cs5
  B:00A0H.2       PUBLIC        cs6
BL51 BANKED LINKER/LOCATER V6.22                                                      01/08/2019  21:00:42  PAGE 31


  B:00A0H.1       PUBLIC        cs7
  D:00A8H         PUBLIC        IE
  B:00A0H.0       PUBLIC        cs8
  D:00B8H         PUBLIC        IP
  D:00D8H         PUBLIC        CCON
  D:0098H         PUBLIC        SCON
  D:0088H         PUBLIC        TCON
  C:4044H         PUBLIC        hang1
  C:4087H         PUBLIC        hang2
  C:4109H         PUBLIC        hang3
  C:413CH         PUBLIC        hang4
  C:416FH         PUBLIC        hang5
  C:41A2H         PUBLIC        hang6
  C:41D5H         PUBLIC        hang7
  C:4208H         PUBLIC        hang8
  D:00D0H         PUBLIC        PSW
  -------         PROC          HANG1
  C:4044H         LINE#         14
  C:4044H         LINE#         15
  C:4044H         LINE#         17
  C:404DH         LINE#         18
  C:4055H         LINE#         19
  C:405DH         LINE#         20
  C:4065H         LINE#         21
  C:406DH         LINE#         22
  C:4075H         LINE#         23
  C:407DH         LINE#         24
  C:4086H         LINE#         25
  -------         ENDPROC       HANG1
  -------         PROC          HANG2
  C:4087H         LINE#         27
  C:4087H         LINE#         28
  C:4087H         LINE#         29
  C:4090H         LINE#         30
  C:4098H         LINE#         31
  C:40A0H         LINE#         32
  C:40A8H         LINE#         33
  C:40B0H         LINE#         34
  C:40B8H         LINE#         35
  C:40C1H         LINE#         36
  C:40C9H         LINE#         37
  -------         ENDPROC       HANG2
  -------         PROC          HANG3
  C:4109H         LINE#         39
  C:4109H         LINE#         40
  C:4109H         LINE#         42
  C:4110H         LINE#         43
  C:4116H         LINE#         44
  C:411CH         LINE#         45
  C:4122H         LINE#         46
  C:4128H         LINE#         47
  C:412FH         LINE#         48
  C:4135H         LINE#         49
  C:413BH         LINE#         50
  -------         ENDPROC       HANG3
  -------         PROC          HANG4
  C:413CH         LINE#         52
BL51 BANKED LINKER/LOCATER V6.22                                                      01/08/2019  21:00:42  PAGE 32


  C:413CH         LINE#         53
  C:413CH         LINE#         54
  C:4143H         LINE#         55
  C:4149H         LINE#         56
  C:414FH         LINE#         57
  C:4155H         LINE#         58
  C:415CH         LINE#         59
  C:4162H         LINE#         60
  C:4168H         LINE#         61
  C:416EH         LINE#         62
  -------         ENDPROC       HANG4
  -------         PROC          HANG5
  C:416FH         LINE#         64
  C:416FH         LINE#         65
  C:416FH         LINE#         66
  C:4176H         LINE#         67
  C:417CH         LINE#         68
  C:4182H         LINE#         69
  C:4189H         LINE#         70
  C:418FH         LINE#         71
  C:4195H         LINE#         72
  C:419BH         LINE#         73
  C:41A1H         LINE#         74
  -------         ENDPROC       HANG5
  -------         PROC          HANG6
  C:41A2H         LINE#         76
  C:41A2H         LINE#         77
  C:41A2H         LINE#         78
  C:41A9H         LINE#         79
  C:41AFH         LINE#         80
  C:41B6H         LINE#         81
  C:41BCH         LINE#         82
  C:41C2H         LINE#         83
  C:41C8H         LINE#         84
  C:41CEH         LINE#         85
  C:41D4H         LINE#         86
  -------         ENDPROC       HANG6
  -------         PROC          HANG7
  C:41D5H         LINE#         88
  C:41D5H         LINE#         89
  C:41D5H         LINE#         90
  C:41DCH         LINE#         91
  C:41E3H         LINE#         92
  C:41E9H         LINE#         93
  C:41EFH         LINE#         94
  C:41F5H         LINE#         95
  C:41FBH         LINE#         96
  C:4201H         LINE#         97
  C:4207H         LINE#         98
  -------         ENDPROC       HANG7
  -------         PROC          HANG8
  C:4208H         LINE#         100
  C:4208H         LINE#         101
  C:4208H         LINE#         102
  C:420FH         LINE#         103
  C:4216H         LINE#         104
  C:421CH         LINE#         105
BL51 BANKED LINKER/LOCATER V6.22                                                      01/08/2019  21:00:42  PAGE 33


  C:4222H         LINE#         106
  C:4228H         LINE#         107
  C:422EH         LINE#         108
  C:4234H         LINE#         109
  C:423AH         LINE#         110
  -------         ENDPROC       HANG8
  -------         ENDMOD        HC573

  -------         MODULE        KEY
  C:0000H         SYMBOL        _ICE_DUMMY_
  D:0090H         PUBLIC        P1
  D:00A8H         PUBLIC        IE
  D:00B8H         PUBLIC        IP
  B:0090H.6       PUBLIC        key_middle
  D:00D8H         PUBLIC        CCON
  D:0098H         PUBLIC        SCON
  D:0088H         PUBLIC        TCON
  X:031CH         PUBLIC        key_flag
  B:0090H.7       PUBLIC        key_right
  C:3FFFH         PUBLIC        key_scan
  B:0090H.5       PUBLIC        key_left
  D:00D0H         PUBLIC        PSW
  -------         PROC          KEY_SCAN
  C:3FFFH         LINE#         13
  C:3FFFH         LINE#         14
  C:3FFFH         LINE#         15
  C:4002H         LINE#         16
  C:4002H         LINE#         17
  C:4009H         LINE#         18
  C:400CH         LINE#         19
  C:4014H         LINE#         21
  C:4014H         LINE#         22
  C:4017H         LINE#         23
  C:4017H         LINE#         24
  C:401EH         LINE#         25
  C:4021H         LINE#         26
  C:4029H         LINE#         27
  C:4029H         LINE#         28
  C:402CH         LINE#         29
  C:402CH         LINE#         30
  C:4033H         LINE#         31
  C:4036H         LINE#         32
  C:403EH         LINE#         33
  C:403EH         LINE#         35
  C:403EH         LINE#         36
  C:4043H         LINE#         37
  C:4043H         LINE#         39
  -------         ENDPROC       KEY_SCAN
  -------         ENDMOD        KEY

  -------         MODULE        TEST
  C:0000H         SYMBOL        _ICE_DUMMY_
  D:0093H         PUBLIC        P0M1
  D:0096H         PUBLIC        P2M0
  D:0080H         PUBLIC        P0
  D:00B2H         PUBLIC        P3M0
  D:0095H         PUBLIC        P2M1
BL51 BANKED LINKER/LOCATER V6.22                                                      01/08/2019  21:00:42  PAGE 34


  D:0090H         PUBLIC        P1
  D:00B1H         PUBLIC        P3M1
  D:00A0H         PUBLIC        P2
  C:4334H         PUBLIC        tablew
  D:00B0H         PUBLIC        P3
  C:3C45H         PUBLIC        interrupt_print
  B:00A8H.7       PUBLIC        EA
  C:3D6CH         PUBLIC        ADC_Finish
  B:00A8H.5       PUBLIC        EADC
  D:00A8H         PUBLIC        IE
  D:00FAH         PUBLIC        CCAP0H
  X:0220H         PUBLIC        flag_fft_s
  D:00FBH         PUBLIC        CCAP1H
  C:3B7FH         PUBLIC        interrupt_uart
  D:00BDH         PUBLIC        ADC_RES
  C:4311H         PUBLIC        Init
  B:00A8H.4       PUBLIC        ES
  B:00B8H.5       PUBLIC        PADC
  D:00B8H         PUBLIC        IP
  B:0098H.0       PUBLIC        RI
  X:0221H         PUBLIC        uart_buffer
  B:0098H.1       PUBLIC        TI
  B:00B8H.4       PUBLIC        PS
  D:00D8H         PUBLIC        CCON
  C:1B4AH         PUBLIC        main
  B:0090H.2       PUBLIC        x1
  B:0090H.3       PUBLIC        x2
  B:0090H.4       PUBLIC        x3
  B:00B0H.3       PUBLIC        x4
  X:0262H         PUBLIC        display2
  B:00B0H.4       PUBLIC        x5
  B:00B0H.5       PUBLIC        x6
  B:00B0H.7       PUBLIC        x7
  B:00B0H.6       PUBLIC        x8
  D:00BCH         PUBLIC        ADC_CONTR
  D:0099H         PUBLIC        SBUF
  D:0087H         PUBLIC        PCON
  D:0098H         PUBLIC        SCON
  X:02A2H         PUBLIC        ADC_Count
  D:0089H         PUBLIC        TMOD
  D:0088H         PUBLIC        TCON
  X:02A3H         PUBLIC        rec
  D:008EH         PUBLIC        AUXR
  X:02A4H         PUBLIC        G
  B:00A8H.1       PUBLIC        ET0
  B:00A8H.3       PUBLIC        ET1
  D:008CH         PUBLIC        TH0
  D:008DH         PUBLIC        TH1
  D:008AH         PUBLIC        TL0
  D:008BH         PUBLIC        TL1
  X:02A5H         PUBLIC        T
  B:00B8H.1       PUBLIC        PT0
  C:42F8H         PUBLIC        uart_init
  B:00B8H.3       PUBLIC        PT1
  B:0088H.4       PUBLIC        TR0
  C:3F2BH         PUBLIC        _layer_cs
  B:0088H.6       PUBLIC        TR1
BL51 BANKED LINKER/LOCATER V6.22                                                      01/08/2019  21:00:42  PAGE 35


  D:009DH         PUBLIC        P1ASF
  D:00BEH         PUBLIC        ADC_RESL
  D:00B7H         PUBLIC        IPH
  X:02A6H         PUBLIC        uart_cnt
  B:0098H.4       PUBLIC        REN
  D:009CH         PUBLIC        BRT
  C:36D1H         PUBLIC        interrupt_fft_display
  D:00A2H         PUBLIC        AUXR1
  X:02A8H         PUBLIC        display
  D:00D0H         PUBLIC        PSW
  D:0094H         PUBLIC        P0M0
  C:3F23H         SYMBOL        L?0137
  -------         PROC          L?0136
  -------         ENDPROC       L?0136
  C:3F23H         SYMBOL        L?0137
  -------         PROC          _LAYER_CS
  D:0007H         SYMBOL        cs
  -------         DO            
  X:02EDH         SYMBOL        i
  -------         ENDDO         
  C:3F2BH         LINE#         74
  C:3F2BH         LINE#         75
  C:3F2BH         LINE#         76
  C:3F30H         LINE#         77
  C:3F40H         LINE#         78
  C:3F44H         LINE#         79
  C:3F44H         LINE#         80
  C:3F46H         LINE#         81
  C:3F46H         LINE#         82
  C:3F4AH         LINE#         83
  C:3F4AH         LINE#         84
  C:3F4CH         LINE#         85
  C:3F4CH         LINE#         86
  C:3F50H         LINE#         87
  C:3F50H         LINE#         88
  C:3F52H         LINE#         89
  C:3F52H         LINE#         90
  C:3F56H         LINE#         91
  C:3F56H         LINE#         92
  C:3F58H         LINE#         93
  C:3F58H         LINE#         94
  C:3F5CH         LINE#         95
  C:3F5CH         LINE#         96
  C:3F5EH         LINE#         97
  C:3F5EH         LINE#         98
  C:3F62H         LINE#         99
  C:3F62H         LINE#         100
  C:3F64H         LINE#         101
  C:3F64H         LINE#         102
  C:3F68H         LINE#         103
  C:3F68H         LINE#         104
  C:3F6AH         LINE#         105
  C:3F6AH         LINE#         106
  C:3F6EH         LINE#         107
  C:3F6EH         LINE#         108
  C:3F70H         LINE#         109
  C:3F70H         LINE#         110
BL51 BANKED LINKER/LOCATER V6.22                                                      01/08/2019  21:00:42  PAGE 36


  -------         ENDPROC       _LAYER_CS
  -------         PROC          INIT
  C:4311H         LINE#         112
  C:4311H         LINE#         113
  C:4311H         LINE#         114
  C:4314H         LINE#         115
  C:4316H         LINE#         116
  C:4318H         LINE#         117
  C:431AH         LINE#         118
  C:431CH         LINE#         119
  C:431EH         LINE#         120
  C:4320H         LINE#         121
  C:4322H         LINE#         122
  C:4324H         LINE#         123
  -------         ENDPROC       INIT
  -------         PROC          UART_INIT
  C:42F8H         LINE#         125
  C:42F8H         LINE#         126
  C:42F8H         LINE#         127
  C:42FBH         LINE#         128
  C:42FEH         LINE#         129
  C:4301H         LINE#         130
  C:4304H         LINE#         131
  C:4307H         LINE#         132
  C:430AH         LINE#         133
  C:430CH         LINE#         134
  C:430EH         LINE#         135
  C:4310H         LINE#         136
  -------         ENDPROC       UART_INIT
  -------         PROC          INTERRUPT_UART
  -------         DO            
  X:02E8H         SYMBOL        i
  X:02EAH         SYMBOL        j
  -------         ENDDO         
  C:3B7FH         LINE#         144
  C:3B92H         LINE#         146
  C:3B99H         LINE#         147
  C:3B9DH         LINE#         148
  C:3BA3H         LINE#         149
  C:3BA3H         LINE#         150
  C:3BB4H         LINE#         151
  C:3BB6H         LINE#         152
  C:3BBEH         LINE#         153
  C:3BBEH         LINE#         154
  C:3BCCH         LINE#         155
  C:3BE2H         LINE#         156
  C:3BE2H         LINE#         157
  C:3BE9H         LINE#         158
  C:3BEDH         LINE#         159
  C:3BF2H         LINE#         160
  C:3BF2H         LINE#         161
  C:3BF4H         LINE#         162
  C:3BF8H         LINE#         163
  C:3BF8H         LINE#         164
  C:3C06H         LINE#         165
  C:3C1CH         LINE#         166
  C:3C1CH         LINE#         167
BL51 BANKED LINKER/LOCATER V6.22                                                      01/08/2019  21:00:42  PAGE 37


  C:3C23H         LINE#         168
  C:3C25H         LINE#         169
  C:3C2CH         LINE#         170
  C:3C30H         LINE#         171
  C:3C30H         LINE#         172
  C:3C30H         LINE#         174
  C:3C32H         LINE#         176
  C:3C32H         LINE#         177
  C:3C34H         LINE#         178
  C:3C34H         LINE#         179
  -------         ENDPROC       INTERRUPT_UART
  -------         PROC          MAIN
  -------         DO            
  X:02EEH         SYMBOL        i
  X:02EFH         SYMBOL        j
  -------         ENDDO         
  C:1B4AH         LINE#         181
  C:1B4AH         LINE#         182
  C:1B4AH         LINE#         183
  C:1B4FH         LINE#         184
  C:1B51H         LINE#         185
  C:1B54H         LINE#         186
  C:1B54H         LINE#         187
  C:1B54H         LINE#         188
  C:1B59H         LINE#         189
  C:1B5CH         LINE#         192
  C:1B67H         LINE#         193
  C:1B67H         LINE#         194
  C:1B68H         LINE#         195
  C:1B6BH         LINE#         196
  C:1B6EH         LINE#         197
  C:1B71H         LINE#         198
  C:1B73H         LINE#         199
  C:1B75H         LINE#         200
  C:1B77H         LINE#         201
  C:1B79H         LINE#         202
  C:1B7CH         LINE#         203
  C:1B81H         LINE#         204
  C:1B81H         LINE#         205
  C:1B81H         LINE#         206
  C:1B87H         LINE#         207
  C:1B87H         LINE#         208
  C:1B87H         LINE#         209
  C:1B87H         LINE#         210
  C:1B8CH         LINE#         212
  C:1B90H         LINE#         213
  C:1B90H         LINE#         214
  C:1B9FH         LINE#         215
  C:1B9FH         LINE#         216
  C:1BBCH         LINE#         217
  C:1BC4H         LINE#         218
  C:1BCEH         LINE#         220
  C:1BD3H         LINE#         221
  C:1BD3H         LINE#         222
  C:1BD8H         LINE#         223
  C:1BD8H         LINE#         224
  C:1C21H         LINE#         225
BL51 BANKED LINKER/LOCATER V6.22                                                      01/08/2019  21:00:42  PAGE 38


  C:1C63H         LINE#         226
  C:1CACH         LINE#         227
  C:1CEEH         LINE#         228
  C:1D37H         LINE#         229
  C:1D79H         LINE#         230
  C:1DC2H         LINE#         231
  C:1E04H         LINE#         232
  C:1E12H         LINE#         233
  C:1E20H         LINE#         235
  C:1E22H         LINE#         237
  C:1E27H         LINE#         238
  C:1E27H         LINE#         239
  C:1E2CH         LINE#         240
  C:1E2CH         LINE#         241
  C:1E6CH         LINE#         242
  C:1E76H         LINE#         243
  C:1E80H         LINE#         244
  C:1E82H         LINE#         245
  C:1E85H         LINE#         247
  C:1E85H         LINE#         250
  C:1E90H         LINE#         251
  C:1E90H         LINE#         253
  C:1E93H         LINE#         254
  C:1E95H         LINE#         255
  C:1E98H         LINE#         256
  C:1E9AH         LINE#         257
  C:1E9DH         LINE#         258
  C:1E9FH         LINE#         260
  C:1EA2H         LINE#         261
  C:1EA5H         LINE#         262
  C:1EA7H         LINE#         263
  C:1EAAH         LINE#         265
  C:1EACH         LINE#         266
  C:1EAEH         LINE#         267
  C:1EB0H         LINE#         268
  C:1EB2H         LINE#         269
  C:1EB4H         LINE#         270
  C:1EB6H         LINE#         271
  C:1EB9H         LINE#         272
  C:1EBEH         LINE#         273
  C:1EC0H         LINE#         274
  C:1EC5H         LINE#         275
  C:1EC8H         LINE#         276
  C:1ECBH         LINE#         277
  C:1ECEH         LINE#         278
  C:1ED1H         LINE#         279
  C:1ED4H         LINE#         280
  C:1ED4H         LINE#         281
  C:1ED4H         LINE#         282
  C:1ED9H         LINE#         283
  C:1EDBH         LINE#         284
  C:1EDDH         LINE#         286
  C:1EE1H         LINE#         287
  C:1EE3H         LINE#         288
  C:1EE5H         LINE#         289
  C:1EE7H         LINE#         290
  C:1EF0H         LINE#         291
BL51 BANKED LINKER/LOCATER V6.22                                                      01/08/2019  21:00:42  PAGE 39


  C:1EFFH         LINE#         292
  C:1EFFH         LINE#         293
  C:1F0FH         LINE#         294
  C:1F17H         LINE#         295
  C:1F1AH         LINE#         300
  C:1F1CH         LINE#         301
  C:1F1CH         LINE#         304
  C:1F27H         LINE#         305
  C:1F27H         LINE#         306
  C:1F2AH         LINE#         307
  C:1F2CH         LINE#         308
  C:1F31H         LINE#         309
  C:1F33H         LINE#         310
  C:1F35H         LINE#         311
  C:1F37H         LINE#         312
  C:1F39H         LINE#         313
  C:1F3BH         LINE#         314
  C:1F40H         LINE#         315
  C:1F40H         LINE#         316
  C:1F40H         LINE#         318
  C:1F43H         LINE#         319
  C:1F48H         LINE#         321
  C:1F4BH         LINE#         322
  C:1F50H         LINE#         323
  C:1F53H         LINE#         324
  C:1F56H         LINE#         326
  C:1F59H         LINE#         327
  C:1F5CH         LINE#         328
  C:1F5FH         LINE#         329
  C:1F62H         LINE#         330
  C:1F65H         LINE#         331
  C:1F68H         LINE#         332
  C:1F6BH         LINE#         333
  C:1F70H         LINE#         335
  C:1F73H         LINE#         336
  C:1F76H         LINE#         337
  C:1F79H         LINE#         338
  C:1F7CH         LINE#         339
  C:1F7FH         LINE#         340
  C:1F82H         LINE#         341
  C:1F85H         LINE#         342
  C:1F88H         LINE#         343
  C:1F8BH         LINE#         344
  -------         ENDPROC       MAIN
  -------         PROC          INTERRUPT_FFT_DISPLAY
  C:36D1H         LINE#         351
  C:36EEH         LINE#         353
  C:36F1H         LINE#         354
  C:36F4H         LINE#         355
  C:36FAH         LINE#         356
  C:3703H         LINE#         357
  C:374EH         LINE#         358
  C:374EH         LINE#         359
  C:3753H         LINE#         360
  C:375FH         LINE#         361
  C:3764H         LINE#         362
  C:3770H         LINE#         363
BL51 BANKED LINKER/LOCATER V6.22                                                      01/08/2019  21:00:42  PAGE 40


  C:3775H         LINE#         364
  C:3780H         LINE#         365
  C:3785H         LINE#         366
  C:3790H         LINE#         367
  C:3795H         LINE#         368
  C:37A0H         LINE#         369
  C:37A5H         LINE#         370
  C:37B0H         LINE#         371
  C:37B5H         LINE#         372
  C:37C0H         LINE#         373
  C:37C0H         LINE#         374
  C:37C9H         LINE#         375
  C:37C9H         LINE#         376
  -------         ENDPROC       INTERRUPT_FFT_DISPLAY
  -------         PROC          ADC_FINISH
  C:3D6CH         LINE#         379
  C:3D83H         LINE#         381
  C:3D86H         LINE#         382
  C:3DC1H         LINE#         384
  C:3DC7H         LINE#         385
  C:3DC7H         LINE#         386
  C:3DCDH         LINE#         387
  C:3DCFH         LINE#         389
  C:3DCFH         LINE#         390
  C:3DD1H         LINE#         391
  C:3DD3H         LINE#         392
  C:3DD3H         LINE#         393
  -------         ENDPROC       ADC_FINISH
  -------         PROC          INTERRUPT_PRINT
  -------         DO            
  D:0007H         SYMBOL        i
  X:021FH         SYMBOL        layer
  -------         ENDDO         
  C:3C45H         LINE#         395
  C:3C56H         LINE#         399
  C:3C5EH         LINE#         400
  C:3C5EH         LINE#         401
  C:3C6EH         LINE#         402
  C:3C6FH         LINE#         403
  C:3C6FH         LINE#         404
  C:3C7CH         LINE#         405
  C:3C9AH         LINE#         406
  C:3C9FH         LINE#         407
  C:3CB3H         LINE#         409
  C:3CBCH         LINE#         410
  C:3CBCH         LINE#         411
  C:3CBFH         LINE#         412
  C:3CC1H         LINE#         414
  C:3CC1H         LINE#         415
  C:3CC6H         LINE#         416
  C:3CC6H         LINE#         417
  C:3CC9H         LINE#         418
  C:3CCCH         LINE#         419
  C:3CCEH         LINE#         422
  C:3CCEH         LINE#         423
  C:3CD1H         LINE#         424
  C:3CD1H         LINE#         425
BL51 BANKED LINKER/LOCATER V6.22                                                      01/08/2019  21:00:42  PAGE 41


  -------         ENDPROC       INTERRUPT_PRINT
  -------         ENDMOD        TEST

  -------         MODULE        ?C?CLDPTR
  C:3AB7H         PUBLIC        ?C?CLDPTR
  -------         ENDMOD        ?C?CLDPTR

  -------         MODULE        ?C?CSTPTR
  C:3AD0H         PUBLIC        ?C?CSTPTR
  -------         ENDMOD        ?C?CSTPTR

  -------         MODULE        ?C?IMUL
  C:3AE2H         PUBLIC        ?C?IMUL
  -------         ENDMOD        ?C?IMUL

  -------         MODULE        ?C?UIDIV
  C:3AF4H         PUBLIC        ?C?UIDIV
  -------         ENDMOD        ?C?UIDIV

  -------         MODULE        ?C?SIDIV
  C:3B49H         PUBLIC        ?C?SIDIV
  -------         ENDMOD        ?C?SIDIV

*** WARNING L15: MULTIPLE CALL TO SEGMENT
    SEGMENT: ?PR?_LAYER_CS?TEST
    CALLER1: ?PR?INTERRUPT_FFT_DISPLAY?TEST
    CALLER2: ?PR?INTERRUPT_PRINT?TEST

Program Size: data=9.0 xdata=797 code=17202
LINK/LOCATE RUN COMPLETE.  1 WARNING(S),  0 ERROR(S)
