A51 MACRO ASSEMBLER  TEXT1                                                                01/10/2019 19:42:26 PAGE     1


MACRO ASSEMBLER A51 V8.02
OBJECT MODULE PLACED IN Text1.OBJ
ASSEMBLER INVOKED BY: C:\Keil_v5\C51\BIN\A51.EXE Text1.src PR(.\Text1.ls1) EP DEBUG

LOC  OBJ            LINE     SOURCE

                       1     ; .\Text1.SRC generated from: Text1.c
                       2     ; COMPILER INVOKED BY:
                       3     ;        C:\Keil_v5\C51\BIN\C51.EXE Text1.c LARGE OPTIMIZE(8,SPEED) BROWSE DEBUG OBJECTEXTE
                             ND SRC(.\Text1.SRC)
                       4     
                       5     $nomod51 
                       6     
                       7     NAME    TEXT1
                       8     
  0080                 9     P0      DATA    080H
  0090                10     P1      DATA    090H
  00A0                11     P2      DATA    0A0H
  00B0                12     P3      DATA    0B0H
  00B4                13     T0      BIT     0B0H.4
  00D6                14     AC      BIT     0D0H.6
  00B5                15     T1      BIT     0B0H.5
  00AF                16     EA      BIT     0A8H.7
  00A8                17     IE      DATA    0A8H
  00B7                18     RD      BIT     0B0H.7
  00AC                19     ES      BIT     0A8H.4
  00B8                20     IP      DATA    0B8H
  0098                21     RI      BIT     098H.0
  00B2                22     INT0    BIT     0B0H.2
  00D7                23     CY      BIT     0D0H.7
  0099                24     TI      BIT     098H.1
  00B3                25     INT1    BIT     0B0H.3
  00BC                26     PS      BIT     0B8H.4
  0081                27     SP      DATA    081H
  00D2                28     OV      BIT     0D0H.2
  00B6                29     WR      BIT     0B0H.6
  0090                30     P10     BIT     090H.0
  0099                31     SBUF    DATA    099H
  0087                32     PCON    DATA    087H
  0091                33     P11     BIT     090H.1
  0093                34     P13     BIT     090H.3
  0098                35     SCON    DATA    098H
  0089                36     TMOD    DATA    089H
  0088                37     TCON    DATA    088H
  0094                38     dat     BIT     090H.4
  0097                39     clk     BIT     090H.7
  0089                40     IE0     BIT     088H.1
  008B                41     IE1     BIT     088H.3
  008E                42     AUXR    DATA    08EH
  00F0                43     B       DATA    0F0H
  00E0                44     ACC     DATA    0E0H
  00A9                45     ET0     BIT     0A8H.1
  0095                46     key     BIT     090H.5
  00AB                47     ET1     BIT     0A8H.3
  008D                48     TF0     BIT     088H.5
  008F                49     TF1     BIT     088H.7
  009A                50     RB8     BIT     098H.2
  008C                51     TH0     DATA    08CH
  00A8                52     EX0     BIT     0A8H.0
  0088                53     IT0     BIT     088H.0
  008D                54     TH1     DATA    08DH
  009B                55     TB8     BIT     098H.3
  00AA                56     EX1     BIT     0A8H.2
  008A                57     IT1     BIT     088H.2
A51 MACRO ASSEMBLER  TEXT1                                                                01/10/2019 19:42:26 PAGE     2

  00D0                58     P       BIT     0D0H.0
  009F                59     SM0     BIT     098H.7
  008A                60     TL0     DATA    08AH
  009E                61     SM1     BIT     098H.6
  008B                62     TL1     DATA    08BH
  009D                63     SM2     BIT     098H.5
  00B9                64     PT0     BIT     0B8H.1
  00BB                65     PT1     BIT     0B8H.3
  00D3                66     RS0     BIT     0D0H.3
  0096                67     cs      BIT     090H.6
  008C                68     TR0     BIT     088H.4
  00D4                69     RS1     BIT     0D0H.4
  008E                70     TR1     BIT     088H.6
  00B8                71     PX0     BIT     0B8H.0
  00BA                72     PX1     BIT     0B8H.2
  0083                73     DPH     DATA    083H
  0082                74     DPL     DATA    082H
  009C                75     REN     BIT     098H.4
  00B0                76     RXD     BIT     0B0H.0
  00B1                77     TXD     BIT     0B0H.1
  00D5                78     F0      BIT     0D0H.5
  0092                79     WS2812  BIT     090H.2
  00D0                80     PSW     DATA    0D0H
                      81     ?PR?_HAL_Delay?TEXT1 SEGMENT CODE 
                      82     ?PR?ReSet?TEXT1      SEGMENT CODE 
                      83     ?XD?ReSet?TEXT1      SEGMENT XDATA OVERLAYABLE 
                      84     ?PR?Delay50us?TEXT1  SEGMENT CODE 
                      85     ?PR?RGB_Set_Up?TEXT1 SEGMENT CODE 
                      86     ?PR?RGB_Set_Down?TEXT1                   SEGMENT CODE 
                      87     ?PR?_Send_2811_24bits?TEXT1              SEGMENT CODE 
                      88     ?PR?RGB_Rst?TEXT1    SEGMENT CODE 
                      89     ?PR?_Set_Colour?TEXT1                    SEGMENT CODE 
                      90     ?PR?_SetPointColour?TEXT1                SEGMENT CODE 
                      91     ?XD?_SetPointColour?TEXT1                SEGMENT XDATA OVERLAYABLE 
                      92     ?PR?_SetPixelColor?TEXT1                 SEGMENT CODE 
                      93     ?XD?_SetPixelColor?TEXT1                 SEGMENT XDATA OVERLAYABLE 
                      94     ?PR?_SentPixelColor?TEXT1                SEGMENT CODE 
                      95     ?XD?_SentPixelColor?TEXT1                SEGMENT XDATA OVERLAYABLE 
                      96     ?PR?PixelUpdate?TEXT1                    SEGMENT CODE 
                      97     ?PR?_Color?TEXT1     SEGMENT CODE 
                      98     ?XD?_Color?TEXT1     SEGMENT XDATA OVERLAYABLE 
                      99     ?PR?_Wheel?TEXT1     SEGMENT CODE 
                     100     ?XD?_Wheel?TEXT1     SEGMENT XDATA OVERLAYABLE 
                     101     ?PR?_rainbow?TEXT1   SEGMENT CODE 
                     102     ?XD?_rainbow?TEXT1   SEGMENT XDATA OVERLAYABLE 
                     103     ?PR?_rainbowCycle?TEXT1                  SEGMENT CODE 
                     104     ?XD?_rainbowCycle?TEXT1                  SEGMENT XDATA OVERLAYABLE 
                     105     ?PR?_theaterChase?TEXT1                  SEGMENT CODE 
                     106     ?XD?_theaterChase?TEXT1                  SEGMENT XDATA OVERLAYABLE 
                     107     ?PR?_theaterChaseRainbow?TEXT1           SEGMENT CODE 
                     108     ?XD?_theaterChaseRainbow?TEXT1           SEGMENT XDATA OVERLAYABLE 
                     109     ?PR?_colorWipe?TEXT1 SEGMENT CODE 
                     110     ?XD?_colorWipe?TEXT1 SEGMENT XDATA OVERLAYABLE 
                     111     ?PR?zidingyi1?TEXT1  SEGMENT CODE 
                     112     ?PR?_LightEffect8?TEXT1                  SEGMENT CODE 
                     113     ?XD?_LightEffect8?TEXT1                  SEGMENT XDATA OVERLAYABLE 
                     114     ?PR?LightEffect1_1?TEXT1                 SEGMENT CODE 
                     115     ?XD?LightEffect1_1?TEXT1                 SEGMENT XDATA OVERLAYABLE 
                     116     ?PR?LightEffect1_8?TEXT1                 SEGMENT CODE 
                     117     ?XD?LightEffect1_8?TEXT1                 SEGMENT XDATA OVERLAYABLE 
                     118     ?PR?LightEffect8_1?TEXT1                 SEGMENT CODE 
                     119     ?XD?LightEffect8_1?TEXT1                 SEGMENT XDATA OVERLAYABLE 
                     120     ?PR?LightEffect8_8?TEXT1                 SEGMENT CODE 
                     121     ?XD?LightEffect8_8?TEXT1                 SEGMENT XDATA OVERLAYABLE 
                     122     ?PR?GetNum?TEXT1     SEGMENT CODE 
                     123     ?PR?LightSunShineWithMusic?TEXT1         SEGMENT CODE 
A51 MACRO ASSEMBLER  TEXT1                                                                01/10/2019 19:42:26 PAGE     3

                     124     ?XD?LightSunShineWithMusic?TEXT1         SEGMENT XDATA OVERLAYABLE 
                     125     ?PR?_LightEffect2?TEXT1                  SEGMENT CODE 
                     126     ?XD?_LightEffect2?TEXT1                  SEGMENT XDATA OVERLAYABLE 
                     127     ?PR?_LightEffect1?TEXT1                  SEGMENT CODE 
                     128     ?XD?_LightEffect1?TEXT1                  SEGMENT XDATA OVERLAYABLE 
                     129     ?PR?_LightControll?TEXT1                 SEGMENT CODE 
                     130     ?PR?long_delay?TEXT1 SEGMENT CODE 
                     131     ?PR?short_delay?TEXT1                    SEGMENT CODE 
                     132     ?PR?_SendByteTo7279?TEXT1                SEGMENT CODE 
                     133     ?PR?ReceivedByteToMCU?TEXT1              SEGMENT CODE 
                     134     ?PR?key_read?TEXT1   SEGMENT CODE 
                     135     ?PR?_delayms?TEXT1   SEGMENT CODE 
                     136     ?PR?_SendByte2Computer?TEXT1             SEGMENT CODE 
                     137     ?PR?_SendBytes2Computer?TEXT1            SEGMENT CODE 
                     138     ?PR?UartInit?TEXT1   SEGMENT CODE 
                     139     ?PR?_Delay1ms?TEXT1  SEGMENT CODE 
                     140     ?PR?main?TEXT1       SEGMENT CODE 
                     141     ?XD?main?TEXT1       SEGMENT XDATA OVERLAYABLE 
                     142     ?PR?_ws2812asm?TEXT1 SEGMENT CODE 
                     143     ?XD?_ws2812asm?TEXT1 SEGMENT XDATA OVERLAYABLE 
                     144     ?C_INITSEG           SEGMENT CODE 
                     145     ?CO?TEXT1            SEGMENT CODE 
                     146     ?XD?TEXT1            SEGMENT XDATA 
                     147             EXTRN   CODE (rand)
                     148             EXTRN   CODE (?C?LSTKXDATA)
                     149             EXTRN   CODE (?C?ULSHR)
                     150             EXTRN   CODE (?C?LSHL)
                     151             EXTRN   CODE (?C?LSTXDATA)
                     152             EXTRN   CODE (?C?UIDIV)
                     153             EXTRN   CODE (?C?SIDIV)
                     154             EXTRN   CODE (?C?FCASTC)
                     155             EXTRN   CODE (?C?FCASTI)
                     156             EXTRN   CODE (?C?FPDIV)
                     157             EXTRN   CODE (?C?CASTF)
                     158             EXTRN   CODE (?C?COPY)
                     159             EXTRN   CODE (?C?CLDPTR)
                     160             EXTRN   CODE (?C_STARTUP)
                     161             PUBLIC  buf_R
                     162             PUBLIC  buf_G
                     163             PUBLIC  buf_B
                     164             PUBLIC  _ws2812asm
                     165             PUBLIC  main
                     166             PUBLIC  _Delay1ms
                     167             PUBLIC  UartInit
                     168             PUBLIC  _SendBytes2Computer
                     169             PUBLIC  _SendByte2Computer
                     170             PUBLIC  _delayms
                     171             PUBLIC  key_read
                     172             PUBLIC  ReceivedByteToMCU
                     173             PUBLIC  _SendByteTo7279
                     174             PUBLIC  short_delay
                     175             PUBLIC  long_delay
                     176             PUBLIC  _LightControll
                     177             PUBLIC  _LightEffect1
                     178             PUBLIC  _LightEffect2
                     179             PUBLIC  LightSunShineWithMusic
                     180             PUBLIC  GetNum
                     181             PUBLIC  LightEffect8_8
                     182             PUBLIC  LightEffect8_1
                     183             PUBLIC  LightEffect1_8
                     184             PUBLIC  LightEffect1_1
                     185             PUBLIC  _LightEffect8
                     186             PUBLIC  zidingyi1
                     187             PUBLIC  ?_colorWipe?BYTE
                     188             PUBLIC  _colorWipe
                     189             PUBLIC  _theaterChaseRainbow
A51 MACRO ASSEMBLER  TEXT1                                                                01/10/2019 19:42:26 PAGE     4

                     190             PUBLIC  ?_theaterChase?BYTE
                     191             PUBLIC  _theaterChase
                     192             PUBLIC  _rainbowCycle
                     193             PUBLIC  _rainbow
                     194             PUBLIC  _Wheel
                     195             PUBLIC  _Color
                     196             PUBLIC  PixelUpdate
                     197             PUBLIC  ?_SentPixelColor?BYTE
                     198             PUBLIC  _SentPixelColor
                     199             PUBLIC  ?_SetPixelColor?BYTE
                     200             PUBLIC  _SetPixelColor
                     201             PUBLIC  ?_SetPointColour?BYTE
                     202             PUBLIC  _SetPointColour
                     203             PUBLIC  _Set_Colour
                     204             PUBLIC  RGB_Rst
                     205             PUBLIC  _Send_2811_24bits
                     206             PUBLIC  RGB_Set_Down
                     207             PUBLIC  RGB_Set_Up
                     208             PUBLIC  Delay50us
                     209             PUBLIC  ReSet
                     210             PUBLIC  _HAL_Delay
                     211     
----                 212             RSEG  ?XD?_LightEffect2?TEXT1
0000                 213     ?_LightEffect2?BYTE:
0000                 214           fre?27101:   DS   2
0002                 215             ORG  2
0002                 216             i?27102:   DS   2
0004                 217             ORG  4
0004                 218       pertime?27103:   DS   4
                     219     
----                 220             RSEG  ?XD?_Color?TEXT1
0000                 221     ?_Color?BYTE:
0000                 222              r?1265:   DS   1
0001                 223             ORG  1
0001                 224              b?1267:   DS   1
                     225     
----                 226             RSEG  ?XD?_LightEffect8?TEXT1
0000                 227     ?_LightEffect8?BYTE:
0000                 228            num?2087:   DS   2
                     229     
----                 230             RSEG  ?XD?LightEffect1_1?TEXT1
0000                 231     ?LightEffect1_1?BYTE:
0000                 232              i?2188:   DS   2
0002                 233             ORG  2
0002                 234              k?2189:   DS   2
                     235     
----                 236             RSEG  ?XD?LightEffect8_1?TEXT1
0000                 237     ?LightEffect8_1?BYTE:
0000                 238              i?2392:   DS   2
0002                 239             ORG  2
0002                 240              k?2393:   DS   2
                     241     
----                 242             RSEG  ?XD?LightEffect1_8?TEXT1
0000                 243     ?LightEffect1_8?BYTE:
0000                 244              i?2290:   DS   2
0002                 245             ORG  2
0002                 246              k?2291:   DS   2
                     247     
----                 248             RSEG  ?XD?LightEffect8_8?TEXT1
0000                 249     ?LightEffect8_8?BYTE:
0000                 250              i?2494:   DS   2
0002                 251             ORG  2
0002                 252              k?2495:   DS   2
                     253     
----                 254             RSEG  ?XD?_SentPixelColor?TEXT1
0000                 255     ?_SentPixelColor?BYTE:
A51 MACRO ASSEMBLER  TEXT1                                                                01/10/2019 19:42:26 PAGE     5

0000                 256            num?1062:   DS   1
0001                 257             ORG  1
0001                 258              c?1063:   DS   4
                     259     
----                 260             RSEG  ?XD?main?TEXT1
0000                 261     ?main?BYTE:
0000                 262      KeyValue?40127:   DS   1
                     263     
----                 264             RSEG  ?XD?_theaterChaseRainbow?TEXT1
0000                 265     ?_theaterChaseRainbow?BYTE:
0000                 266           wait?1780:   DS   2
0002                 267             ORG  2
0002                 268              j?1781:   DS   2
0004                 269             ORG  4
0004                 270              q?1782:   DS   2
0006                 271             ORG  6
0006                 272              i?1783:   DS   2
                     273     
----                 274             RSEG  ?XD?_SetPointColour?TEXT1
0000                 275     ?_SetPointColour?BYTE:
0000                 276             num?854:   DS   2
0002                 277               r?855:   DS   1
0003                 278               g?856:   DS   1
0004                 279             ORG  4
0004                 280               b?857:   DS   1
                     281     
----                 282             RSEG  ?XD?_SetPixelColor?TEXT1
0000                 283     ?_SetPixelColor?BYTE:
0000                 284             num?959:   DS   1
0001                 285             ORG  1
0001                 286               c?960:   DS   4
                     287     
----                 288             RSEG  ?XD?_colorWipe?TEXT1
0000                 289     ?_colorWipe?BYTE:
0000                 290              c?1884:   DS   4
0004                 291             ORG  4
0004                 292           wait?1885:   DS   2
0006                 293             ORG  6
0006                 294              i?1886:   DS   2
                     295     
----                 296             RSEG  ?XD?LightSunShineWithMusic?TEXT1
0000                 297     ?LightSunShineWithMusic?BYTE:
0000                 298     RandNumber?2696:   DS   2
0002                 299             ORG  2
0002                 300              i?2697:   DS   2
0004                 301             ORG  4
0004                 302              j?2698:   DS   2
0006                 303             ORG  6
0006                 304          XuHao?2699:   DS   2
                     305     
----                 306             RSEG  ?XD?_theaterChase?TEXT1
0000                 307     ?_theaterChase?BYTE:
0000                 308              c?1675:   DS   4
0004                 309             ORG  4
0004                 310           wait?1676:   DS   2
0006                 311             ORG  6
0006                 312              j?1677:   DS   2
0008                 313             ORG  8
0008                 314              q?1678:   DS   2
000A                 315             ORG  10
000A                 316              i?1679:   DS   2
                     317     
----                 318             RSEG  ?XD?ReSet?TEXT1
0000                 319     ?ReSet?BYTE:
0000                 320               i?143:   DS   2
                     321     
A51 MACRO ASSEMBLER  TEXT1                                                                01/10/2019 19:42:26 PAGE     6

----                 322             RSEG  ?XD?_rainbowCycle?TEXT1
0000                 323     ?_rainbowCycle?BYTE:
0000                 324           wait?1572:   DS   2
0002                 325             ORG  2
0002                 326              i?1573:   DS   2
0004                 327             ORG  4
0004                 328              j?1574:   DS   2
                     329     
----                 330             RSEG  ?XD?_rainbow?TEXT1
0000                 331     ?_rainbow?BYTE:
0000                 332           wait?1469:   DS   2
0002                 333             ORG  2
0002                 334              i?1470:   DS   2
0004                 335             ORG  4
0004                 336              j?1471:   DS   2
                     337     
----                 338             RSEG  ?XD?_Wheel?TEXT1
0000                 339     ?_Wheel?BYTE:
0000                 340       WheelPos?1368:   DS   1
                     341     
----                 342             RSEG  ?XD?_ws2812asm?TEXT1
0000                 343     ?_ws2812asm?BYTE:
0000                 344         dataa?41128:   DS   1
                     345     
----                 346             RSEG  ?XD?_LightEffect1?TEXT1
0000                 347     ?_LightEffect1?BYTE:
0000                 348          time?28104:   DS   1
0001                 349             ORG  1
0001                 350             j?28105:   DS   2
0003                 351             ORG  3
0003                 352             i?28106:   DS   2
0005                 353             ORG  5
0005                 354             R?28107:   DS   384
0185                 355             ORG  389
0185                 356             G?28108:   DS   384
0305                 357             ORG  773
0305                 358             B?28109:   DS   384
                     359     
----                 360             RSEG  ?XD?TEXT1
0000                 361               buf_B:   DS   64
0040                 362               buf_G:   DS   64
0080                 363               buf_R:   DS   64
                     364     
----                 365             RSEG  ?CO?TEXT1
0000                 366     _?ix1000:
0000 00              367             DB      000H
0001 00              368             DB      000H
0002 00              369             DB      000H
0003 00              370             DB      000H
0004 00              371             DB      000H
0005 00              372             DB      000H
0006 00              373             DB      000H
0007 00              374             DB      000H
0008 00              375             DB      000H
0009 FF              376             DB      0FFH
000A FF              377             DB      0FFH
000B 00              378             DB      000H
000C 00              379             DB      000H
000D FF              380             DB      0FFH
000E FF              381             DB      0FFH
000F 00              382             DB      000H
0010 FF              383             DB      0FFH
0011 FF              384             DB      0FFH
0012 FF              385             DB      0FFH
0013 FF              386             DB      0FFH
0014 FF              387             DB      0FFH
A51 MACRO ASSEMBLER  TEXT1                                                                01/10/2019 19:42:26 PAGE     7

0015 FF              388             DB      0FFH
0016 FF              389             DB      0FFH
0017 FF              390             DB      0FFH
0018 FF              391             DB      0FFH
0019 FF              392             DB      0FFH
001A FF              393             DB      0FFH
001B FF              394             DB      0FFH
001C FF              395             DB      0FFH
001D FF              396             DB      0FFH
001E FF              397             DB      0FFH
001F FF              398             DB      0FFH
0020 FF              399             DB      0FFH
0021 FF              400             DB      0FFH
0022 FF              401             DB      0FFH
0023 FF              402             DB      0FFH
0024 FF              403             DB      0FFH
0025 FF              404             DB      0FFH
0026 FF              405             DB      0FFH
0027 FF              406             DB      0FFH
0028 00              407             DB      000H
0029 FF              408             DB      0FFH
002A FF              409             DB      0FFH
002B FF              410             DB      0FFH
002C FF              411             DB      0FFH
002D FF              412             DB      0FFH
002E 00              413             DB      000H
002F 00              414             DB      000H
0030 00              415             DB      000H
0031 00              416             DB      000H
0032 FF              417             DB      0FFH
0033 FF              418             DB      0FFH
0034 FF              419             DB      0FFH
0035 FF              420             DB      0FFH
0036 00              421             DB      000H
0037 00              422             DB      000H
0038 00              423             DB      000H
0039 00              424             DB      000H
003A 00              425             DB      000H
003B FF              426             DB      0FFH
003C FF              427             DB      0FFH
003D 00              428             DB      000H
003E 00              429             DB      000H
003F 00              430             DB      000H
0040 00              431             DB      000H
0041 00              432             DB      000H
0042 00              433             DB      000H
0043 00              434             DB      000H
0044 00              435             DB      000H
0045 00              436             DB      000H
0046 00              437             DB      000H
0047 00              438             DB      000H
0048 00              439             DB      000H
0049 00              440             DB      000H
004A 00              441             DB      000H
004B 00              442             DB      000H
004C 00              443             DB      000H
004D 00              444             DB      000H
004E 00              445             DB      000H
004F 00              446             DB      000H
0050 00              447             DB      000H
0051 00              448             DB      000H
0052 FF              449             DB      0FFH
0053 00              450             DB      000H
0054 00              451             DB      000H
0055 FF              452             DB      0FFH
0056 00              453             DB      000H
A51 MACRO ASSEMBLER  TEXT1                                                                01/10/2019 19:42:26 PAGE     8

0057 00              454             DB      000H
0058 00              455             DB      000H
0059 FF              456             DB      0FFH
005A FD              457             DB      0FDH
005B FF              458             DB      0FFH
005C FF              459             DB      0FFH
005D FD              460             DB      0FDH
005E FF              461             DB      0FFH
005F 00              462             DB      000H
0060 00              463             DB      000H
0061 FF              464             DB      0FFH
0062 FD              465             DB      0FDH
0063 FD              466             DB      0FDH
0064 FD              467             DB      0FDH
0065 FD              468             DB      0FDH
0066 FF              469             DB      0FFH
0067 00              470             DB      000H
0068 00              471             DB      000H
0069 00              472             DB      000H
006A FF              473             DB      0FFH
006B FD              474             DB      0FDH
006C FD              475             DB      0FDH
006D FF              476             DB      0FFH
006E 00              477             DB      000H
006F 00              478             DB      000H
0070 00              479             DB      000H
0071 00              480             DB      000H
0072 00              481             DB      000H
0073 FF              482             DB      0FFH
0074 FF              483             DB      0FFH
0075 00              484             DB      000H
0076 00              485             DB      000H
0077 00              486             DB      000H
0078 00              487             DB      000H
0079 00              488             DB      000H
007A 00              489             DB      000H
007B 00              490             DB      000H
007C 00              491             DB      000H
007D 00              492             DB      000H
007E 00              493             DB      000H
007F 00              494             DB      000H
0080 00              495             DB      000H
0081 00              496             DB      000H
0082 00              497             DB      000H
0083 00              498             DB      000H
0084 00              499             DB      000H
0085 00              500             DB      000H
0086 00              501             DB      000H
0087 00              502             DB      000H
0088 00              503             DB      000H
0089 00              504             DB      000H
008A 00              505             DB      000H
008B 2B              506             DB      02BH
008C 00              507             DB      000H
008D 00              508             DB      000H
008E 00              509             DB      000H
008F 00              510             DB      000H
0090 00              511             DB      000H
0091 00              512             DB      000H
0092 2B              513             DB      02BH
0093 30              514             DB      030H
0094 2B              515             DB      02BH
0095 00              516             DB      000H
0096 00              517             DB      000H
0097 00              518             DB      000H
0098 00              519             DB      000H
A51 MACRO ASSEMBLER  TEXT1                                                                01/10/2019 19:42:26 PAGE     9

0099 2B              520             DB      02BH
009A 1C              521             DB      01CH
009B 30              522             DB      030H
009C 30              523             DB      030H
009D 2B              524             DB      02BH
009E 00              525             DB      000H
009F 00              526             DB      000H
00A0 00              527             DB      000H
00A1 00              528             DB      000H
00A2 2B              529             DB      02BH
00A3 1C              530             DB      01CH
00A4 30              531             DB      030H
00A5 30              532             DB      030H
00A6 2B              533             DB      02BH
00A7 00              534             DB      000H
00A8 00              535             DB      000H
00A9 00              536             DB      000H
00AA 00              537             DB      000H
00AB 2B              538             DB      02BH
00AC 1C              539             DB      01CH
00AD 2B              540             DB      02BH
00AE 00              541             DB      000H
00AF 00              542             DB      000H
00B0 00              543             DB      000H
00B1 00              544             DB      000H
00B2 00              545             DB      000H
00B3 00              546             DB      000H
00B4 2B              547             DB      02BH
00B5 00              548             DB      000H
00B6 00              549             DB      000H
00B7 00              550             DB      000H
00B8 00              551             DB      000H
00B9 00              552             DB      000H
00BA 00              553             DB      000H
00BB 00              554             DB      000H
00BC 00              555             DB      000H
00BD 00              556             DB      000H
00BE 00              557             DB      000H
00BF 00              558             DB      000H
00C0 00              559             DB      000H
00C1 00              560             DB      000H
00C2 00              561             DB      000H
00C3 03              562             DB      003H
00C4 03              563             DB      003H
00C5 00              564             DB      000H
00C6 00              565             DB      000H
00C7 00              566             DB      000H
00C8 00              567             DB      000H
00C9 00              568             DB      000H
00CA 01              569             DB      001H
00CB 01              570             DB      001H
00CC 01              571             DB      001H
00CD 01              572             DB      001H
00CE 00              573             DB      000H
00CF 00              574             DB      000H
00D0 00              575             DB      000H
00D1 C5              576             DB      0C5H
00D2 C5              577             DB      0C5H
00D3 C5              578             DB      0C5H
00D4 C5              579             DB      0C5H
00D5 C5              580             DB      0C5H
00D6 C5              581             DB      0C5H
00D7 00              582             DB      000H
00D8 FE              583             DB      0FEH
00D9 FE              584             DB      0FEH
00DA FE              585             DB      0FEH
A51 MACRO ASSEMBLER  TEXT1                                                                01/10/2019 19:42:26 PAGE    10

00DB FE              586             DB      0FEH
00DC FE              587             DB      0FEH
00DD FE              588             DB      0FEH
00DE FE              589             DB      0FEH
00DF FE              590             DB      0FEH
00E0 00              591             DB      000H
00E1 C5              592             DB      0C5H
00E2 C5              593             DB      0C5H
00E3 C5              594             DB      0C5H
00E4 C5              595             DB      0C5H
00E5 C5              596             DB      0C5H
00E6 C5              597             DB      0C5H
00E7 00              598             DB      000H
00E8 00              599             DB      000H
00E9 00              600             DB      000H
00EA 01              601             DB      001H
00EB 01              602             DB      001H
00EC 01              603             DB      001H
00ED 01              604             DB      001H
00EE 00              605             DB      000H
00EF 00              606             DB      000H
00F0 00              607             DB      000H
00F1 00              608             DB      000H
00F2 00              609             DB      000H
00F3 03              610             DB      003H
00F4 03              611             DB      003H
00F5 00              612             DB      000H
00F6 00              613             DB      000H
00F7 00              614             DB      000H
00F8 00              615             DB      000H
00F9 00              616             DB      000H
00FA 00              617             DB      000H
00FB 00              618             DB      000H
00FC 00              619             DB      000H
00FD 00              620             DB      000H
00FE 00              621             DB      000H
00FF 00              622             DB      000H
0100 FF              623             DB      0FFH
0101 FF              624             DB      0FFH
0102 FF              625             DB      0FFH
0103 FF              626             DB      0FFH
0104 FF              627             DB      0FFH
0105 FF              628             DB      0FFH
0106 FF              629             DB      0FFH
0107 FF              630             DB      0FFH
0108 FF              631             DB      0FFH
0109 FF              632             DB      0FFH
010A FF              633             DB      0FFH
010B FF              634             DB      0FFH
010C FF              635             DB      0FFH
010D FF              636             DB      0FFH
010E FF              637             DB      0FFH
010F FF              638             DB      0FFH
0110 FF              639             DB      0FFH
0111 FF              640             DB      0FFH
0112 00              641             DB      000H
0113 00              642             DB      000H
0114 00              643             DB      000H
0115 00              644             DB      000H
0116 FF              645             DB      0FFH
0117 FF              646             DB      0FFH
0118 FF              647             DB      0FFH
0119 FF              648             DB      0FFH
011A 00              649             DB      000H
011B 00              650             DB      000H
011C 00              651             DB      000H
A51 MACRO ASSEMBLER  TEXT1                                                                01/10/2019 19:42:26 PAGE    11

011D 00              652             DB      000H
011E FF              653             DB      0FFH
011F FF              654             DB      0FFH
0120 FF              655             DB      0FFH
0121 FF              656             DB      0FFH
0122 00              657             DB      000H
0123 00              658             DB      000H
0124 00              659             DB      000H
0125 00              660             DB      000H
0126 FF              661             DB      0FFH
0127 FF              662             DB      0FFH
0128 FF              663             DB      0FFH
0129 FF              664             DB      0FFH
012A 00              665             DB      000H
012B 00              666             DB      000H
012C 00              667             DB      000H
012D 00              668             DB      000H
012E FF              669             DB      0FFH
012F FF              670             DB      0FFH
0130 FF              671             DB      0FFH
0131 FF              672             DB      0FFH
0132 FF              673             DB      0FFH
0133 FF              674             DB      0FFH
0134 FF              675             DB      0FFH
0135 FF              676             DB      0FFH
0136 FF              677             DB      0FFH
0137 FF              678             DB      0FFH
0138 FF              679             DB      0FFH
0139 FF              680             DB      0FFH
013A FF              681             DB      0FFH
013B FF              682             DB      0FFH
013C FF              683             DB      0FFH
013D FF              684             DB      0FFH
013E FF              685             DB      0FFH
013F FF              686             DB      0FFH
0140 00              687             DB      000H
0141 00              688             DB      000H
0142 00              689             DB      000H
0143 00              690             DB      000H
0144 00              691             DB      000H
0145 00              692             DB      000H
0146 00              693             DB      000H
0147 00              694             DB      000H
0148 00              695             DB      000H
0149 00              696             DB      000H
014A 03              697             DB      003H
014B 03              698             DB      003H
014C 03              699             DB      003H
014D 03              700             DB      003H
014E 00              701             DB      000H
014F 00              702             DB      000H
0150 00              703             DB      000H
0151 03              704             DB      003H
0152 F2              705             DB      0F2H
0153 E9              706             DB      0E9H
0154 E9              707             DB      0E9H
0155 DD              708             DB      0DDH
0156 03              709             DB      003H
0157 00              710             DB      000H
0158 00              711             DB      000H
0159 03              712             DB      003H
015A E9              713             DB      0E9H
015B F2              714             DB      0F2H
015C DD              715             DB      0DDH
015D E9              716             DB      0E9H
015E 03              717             DB      003H
A51 MACRO ASSEMBLER  TEXT1                                                                01/10/2019 19:42:26 PAGE    12

015F 00              718             DB      000H
0160 00              719             DB      000H
0161 03              720             DB      003H
0162 E9              721             DB      0E9H
0163 DD              722             DB      0DDH
0164 F2              723             DB      0F2H
0165 E9              724             DB      0E9H
0166 03              725             DB      003H
0167 00              726             DB      000H
0168 00              727             DB      000H
0169 03              728             DB      003H
016A DD              729             DB      0DDH
016B E9              730             DB      0E9H
016C E9              731             DB      0E9H
016D F2              732             DB      0F2H
016E 03              733             DB      003H
016F 00              734             DB      000H
0170 00              735             DB      000H
0171 00              736             DB      000H
0172 03              737             DB      003H
0173 03              738             DB      003H
0174 03              739             DB      003H
0175 03              740             DB      003H
0176 00              741             DB      000H
0177 00              742             DB      000H
0178 00              743             DB      000H
0179 00              744             DB      000H
017A 00              745             DB      000H
017B 00              746             DB      000H
017C 00              747             DB      000H
017D 00              748             DB      000H
017E 00              749             DB      000H
017F 00              750             DB      000H
                     751     
0180                 752     _?ix1001:
0180 00              753             DB      000H
0181 00              754             DB      000H
0182 00              755             DB      000H
0183 00              756             DB      000H
0184 00              757             DB      000H
0185 00              758             DB      000H
0186 00              759             DB      000H
0187 00              760             DB      000H
0188 00              761             DB      000H
0189 00              762             DB      000H
018A 00              763             DB      000H
018B 00              764             DB      000H
018C 00              765             DB      000H
018D 00              766             DB      000H
018E 00              767             DB      000H
018F 00              768             DB      000H
0190 00              769             DB      000H
0191 00              770             DB      000H
0192 00              771             DB      000H
0193 00              772             DB      000H
0194 00              773             DB      000H
0195 00              774             DB      000H
0196 00              775             DB      000H
0197 00              776             DB      000H
0198 00              777             DB      000H
0199 00              778             DB      000H
019A 80              779             DB      080H
019B 00              780             DB      000H
019C 00              781             DB      000H
019D 80              782             DB      080H
019E 00              783             DB      000H
A51 MACRO ASSEMBLER  TEXT1                                                                01/10/2019 19:42:26 PAGE    13

019F 00              784             DB      000H
01A0 00              785             DB      000H
01A1 00              786             DB      000H
01A2 80              787             DB      080H
01A3 80              788             DB      080H
01A4 80              789             DB      080H
01A5 80              790             DB      080H
01A6 00              791             DB      000H
01A7 00              792             DB      000H
01A8 00              793             DB      000H
01A9 00              794             DB      000H
01AA 00              795             DB      000H
01AB 80              796             DB      080H
01AC 80              797             DB      080H
01AD 00              798             DB      000H
01AE 00              799             DB      000H
01AF 00              800             DB      000H
01B0 00              801             DB      000H
01B1 00              802             DB      000H
01B2 00              803             DB      000H
01B3 00              804             DB      000H
01B4 00              805             DB      000H
01B5 00              806             DB      000H
01B6 00              807             DB      000H
01B7 00              808             DB      000H
01B8 00              809             DB      000H
01B9 00              810             DB      000H
01BA 00              811             DB      000H
01BB 00              812             DB      000H
01BC 00              813             DB      000H
01BD 00              814             DB      000H
01BE 00              815             DB      000H
01BF 00              816             DB      000H
01C0 00              817             DB      000H
01C1 00              818             DB      000H
01C2 00              819             DB      000H
01C3 00              820             DB      000H
01C4 00              821             DB      000H
01C5 00              822             DB      000H
01C6 00              823             DB      000H
01C7 00              824             DB      000H
01C8 00              825             DB      000H
01C9 00              826             DB      000H
01CA 00              827             DB      000H
01CB 00              828             DB      000H
01CC 00              829             DB      000H
01CD 00              830             DB      000H
01CE 00              831             DB      000H
01CF 00              832             DB      000H
01D0 00              833             DB      000H
01D1 00              834             DB      000H
01D2 80              835             DB      080H
01D3 00              836             DB      000H
01D4 00              837             DB      000H
01D5 80              838             DB      080H
01D6 00              839             DB      000H
01D7 00              840             DB      000H
01D8 00              841             DB      000H
01D9 80              842             DB      080H
01DA C5              843             DB      0C5H
01DB 80              844             DB      080H
01DC 80              845             DB      080H
01DD C5              846             DB      0C5H
01DE 80              847             DB      080H
01DF 00              848             DB      000H
01E0 00              849             DB      000H
A51 MACRO ASSEMBLER  TEXT1                                                                01/10/2019 19:42:26 PAGE    14

01E1 80              850             DB      080H
01E2 C5              851             DB      0C5H
01E3 C5              852             DB      0C5H
01E4 C5              853             DB      0C5H
01E5 C5              854             DB      0C5H
01E6 80              855             DB      080H
01E7 00              856             DB      000H
01E8 00              857             DB      000H
01E9 00              858             DB      000H
01EA 80              859             DB      080H
01EB C5              860             DB      0C5H
01EC C5              861             DB      0C5H
01ED 80              862             DB      080H
01EE 00              863             DB      000H
01EF 00              864             DB      000H
01F0 00              865             DB      000H
01F1 00              866             DB      000H
01F2 00              867             DB      000H
01F3 80              868             DB      080H
01F4 80              869             DB      080H
01F5 00              870             DB      000H
01F6 00              871             DB      000H
01F7 00              872             DB      000H
01F8 00              873             DB      000H
01F9 00              874             DB      000H
01FA 00              875             DB      000H
01FB 00              876             DB      000H
01FC 00              877             DB      000H
01FD 00              878             DB      000H
01FE 00              879             DB      000H
01FF 00              880             DB      000H
0200 00              881             DB      000H
0201 00              882             DB      000H
0202 00              883             DB      000H
0203 FF              884             DB      0FFH
0204 00              885             DB      000H
0205 00              886             DB      000H
0206 00              887             DB      000H
0207 00              888             DB      000H
0208 00              889             DB      000H
0209 00              890             DB      000H
020A FF              891             DB      0FFH
020B CA              892             DB      0CAH
020C FF              893             DB      0FFH
020D 00              894             DB      000H
020E 00              895             DB      000H
020F 00              896             DB      000H
0210 00              897             DB      000H
0211 FF              898             DB      0FFH
0212 CA              899             DB      0CAH
0213 B9              900             DB      0B9H
0214 CA              901             DB      0CAH
0215 FF              902             DB      0FFH
0216 00              903             DB      000H
0217 00              904             DB      000H
0218 FF              905             DB      0FFH
0219 CA              906             DB      0CAH
021A CB              907             DB      0CBH
021B B9              908             DB      0B9H
021C B9              909             DB      0B9H
021D CA              910             DB      0CAH
021E FF              911             DB      0FFH
021F 00              912             DB      000H
0220 00              913             DB      000H
0221 FF              914             DB      0FFH
0222 CA              915             DB      0CAH
A51 MACRO ASSEMBLER  TEXT1                                                                01/10/2019 19:42:26 PAGE    15

0223 CB              916             DB      0CBH
0224 B9              917             DB      0B9H
0225 B9              918             DB      0B9H
0226 CA              919             DB      0CAH
0227 FF              920             DB      0FFH
0228 00              921             DB      000H
0229 00              922             DB      000H
022A FF              923             DB      0FFH
022B CA              924             DB      0CAH
022C CB              925             DB      0CBH
022D CA              926             DB      0CAH
022E FF              927             DB      0FFH
022F 00              928             DB      000H
0230 00              929             DB      000H
0231 00              930             DB      000H
0232 00              931             DB      000H
0233 FF              932             DB      0FFH
0234 CA              933             DB      0CAH
0235 FF              934             DB      0FFH
0236 00              935             DB      000H
0237 00              936             DB      000H
0238 00              937             DB      000H
0239 00              938             DB      000H
023A 00              939             DB      000H
023B 00              940             DB      000H
023C FF              941             DB      0FFH
023D 00              942             DB      000H
023E 00              943             DB      000H
023F 00              944             DB      000H
0240 00              945             DB      000H
0241 00              946             DB      000H
0242 00              947             DB      000H
0243 FC              948             DB      0FCH
0244 FC              949             DB      0FCH
0245 00              950             DB      000H
0246 00              951             DB      000H
0247 00              952             DB      000H
0248 00              953             DB      000H
0249 00              954             DB      000H
024A FE              955             DB      0FEH
024B FE              956             DB      0FEH
024C FE              957             DB      0FEH
024D FE              958             DB      0FEH
024E 00              959             DB      000H
024F 00              960             DB      000H
0250 00              961             DB      000H
0251 FE              962             DB      0FEH
0252 FE              963             DB      0FEH
0253 FE              964             DB      0FEH
0254 FE              965             DB      0FEH
0255 FE              966             DB      0FEH
0256 FE              967             DB      0FEH
0257 00              968             DB      000H
0258 A6              969             DB      0A6H
0259 A6              970             DB      0A6H
025A A6              971             DB      0A6H
025B A6              972             DB      0A6H
025C A6              973             DB      0A6H
025D A6              974             DB      0A6H
025E A6              975             DB      0A6H
025F A6              976             DB      0A6H
0260 00              977             DB      000H
0261 FE              978             DB      0FEH
0262 FE              979             DB      0FEH
0263 FE              980             DB      0FEH
0264 FE              981             DB      0FEH
A51 MACRO ASSEMBLER  TEXT1                                                                01/10/2019 19:42:26 PAGE    16

0265 FE              982             DB      0FEH
0266 FE              983             DB      0FEH
0267 00              984             DB      000H
0268 00              985             DB      000H
0269 00              986             DB      000H
026A FE              987             DB      0FEH
026B FE              988             DB      0FEH
026C FE              989             DB      0FEH
026D FE              990             DB      0FEH
026E 00              991             DB      000H
026F 00              992             DB      000H
0270 00              993             DB      000H
0271 00              994             DB      000H
0272 00              995             DB      000H
0273 FC              996             DB      0FCH
0274 FC              997             DB      0FCH
0275 00              998             DB      000H
0276 00              999             DB      000H
0277 00             1000             DB      000H
0278 00             1001             DB      000H
0279 00             1002             DB      000H
027A 00             1003             DB      000H
027B 00             1004             DB      000H
027C 00             1005             DB      000H
027D 00             1006             DB      000H
027E 00             1007             DB      000H
027F 00             1008             DB      000H
0280 80             1009             DB      080H
0281 80             1010             DB      080H
0282 80             1011             DB      080H
0283 80             1012             DB      080H
0284 80             1013             DB      080H
0285 80             1014             DB      080H
0286 80             1015             DB      080H
0287 80             1016             DB      080H
0288 80             1017             DB      080H
0289 FF             1018             DB      0FFH
028A FF             1019             DB      0FFH
028B FF             1020             DB      0FFH
028C FF             1021             DB      0FFH
028D FF             1022             DB      0FFH
028E FF             1023             DB      0FFH
028F 80             1024             DB      080H
0290 80             1025             DB      080H
0291 FF             1026             DB      0FFH
0292 FF             1027             DB      0FFH
0293 FF             1028             DB      0FFH
0294 FF             1029             DB      0FFH
0295 FF             1030             DB      0FFH
0296 FF             1031             DB      0FFH
0297 80             1032             DB      080H
0298 80             1033             DB      080H
0299 FF             1034             DB      0FFH
029A FF             1035             DB      0FFH
029B FF             1036             DB      0FFH
029C FF             1037             DB      0FFH
029D FF             1038             DB      0FFH
029E FF             1039             DB      0FFH
029F 80             1040             DB      080H
02A0 80             1041             DB      080H
02A1 FF             1042             DB      0FFH
02A2 FF             1043             DB      0FFH
02A3 FF             1044             DB      0FFH
02A4 FF             1045             DB      0FFH
02A5 FF             1046             DB      0FFH
02A6 FF             1047             DB      0FFH
A51 MACRO ASSEMBLER  TEXT1                                                                01/10/2019 19:42:26 PAGE    17

02A7 80             1048             DB      080H
02A8 80             1049             DB      080H
02A9 FF             1050             DB      0FFH
02AA FF             1051             DB      0FFH
02AB FF             1052             DB      0FFH
02AC FF             1053             DB      0FFH
02AD FF             1054             DB      0FFH
02AE FF             1055             DB      0FFH
02AF 80             1056             DB      080H
02B0 80             1057             DB      080H
02B1 FF             1058             DB      0FFH
02B2 FF             1059             DB      0FFH
02B3 FF             1060             DB      0FFH
02B4 FF             1061             DB      0FFH
02B5 FF             1062             DB      0FFH
02B6 FF             1063             DB      0FFH
02B7 80             1064             DB      080H
02B8 80             1065             DB      080H
02B9 80             1066             DB      080H
02BA 80             1067             DB      080H
02BB 80             1068             DB      080H
02BC 80             1069             DB      080H
02BD 80             1070             DB      080H
02BE 80             1071             DB      080H
02BF 80             1072             DB      080H
02C0 00             1073             DB      000H
02C1 00             1074             DB      000H
02C2 1A             1075             DB      01AH
02C3 1A             1076             DB      01AH
02C4 1A             1077             DB      01AH
02C5 1A             1078             DB      01AH
02C6 00             1079             DB      000H
02C7 00             1080             DB      000H
02C8 00             1081             DB      000H
02C9 1A             1082             DB      01AH
02CA FC             1083             DB      0FCH
02CB FC             1084             DB      0FCH
02CC FC             1085             DB      0FCH
02CD FC             1086             DB      0FCH
02CE 1A             1087             DB      01AH
02CF 00             1088             DB      000H
02D0 1A             1089             DB      01AH
02D1 FC             1090             DB      0FCH
02D2 80             1091             DB      080H
02D3 E9             1092             DB      0E9H
02D4 E9             1093             DB      0E9H
02D5 26             1094             DB      026H
02D6 FC             1095             DB      0FCH
02D7 1A             1096             DB      01AH
02D8 1A             1097             DB      01AH
02D9 FC             1098             DB      0FCH
02DA E9             1099             DB      0E9H
02DB 80             1100             DB      080H
02DC 26             1101             DB      026H
02DD E9             1102             DB      0E9H
02DE FC             1103             DB      0FCH
02DF 1A             1104             DB      01AH
02E0 1A             1105             DB      01AH
02E1 FC             1106             DB      0FCH
02E2 E9             1107             DB      0E9H
02E3 26             1108             DB      026H
02E4 80             1109             DB      080H
02E5 E9             1110             DB      0E9H
02E6 FC             1111             DB      0FCH
02E7 1A             1112             DB      01AH
02E8 1A             1113             DB      01AH
A51 MACRO ASSEMBLER  TEXT1                                                                01/10/2019 19:42:26 PAGE    18

02E9 FC             1114             DB      0FCH
02EA 26             1115             DB      026H
02EB E9             1116             DB      0E9H
02EC E9             1117             DB      0E9H
02ED 80             1118             DB      080H
02EE FC             1119             DB      0FCH
02EF 1A             1120             DB      01AH
02F0 00             1121             DB      000H
02F1 1A             1122             DB      01AH
02F2 FC             1123             DB      0FCH
02F3 FC             1124             DB      0FCH
02F4 FC             1125             DB      0FCH
02F5 FC             1126             DB      0FCH
02F6 1A             1127             DB      01AH
02F7 00             1128             DB      000H
02F8 00             1129             DB      000H
02F9 00             1130             DB      000H
02FA 1A             1131             DB      01AH
02FB 1A             1132             DB      01AH
02FC 1A             1133             DB      01AH
02FD 1A             1134             DB      01AH
02FE 00             1135             DB      000H
02FF 00             1136             DB      000H
                    1137     
0300                1138     _?ix1002:
0300 00             1139             DB      000H
0301 00             1140             DB      000H
0302 00             1141             DB      000H
0303 00             1142             DB      000H
0304 00             1143             DB      000H
0305 00             1144             DB      000H
0306 00             1145             DB      000H
0307 00             1146             DB      000H
0308 00             1147             DB      000H
0309 00             1148             DB      000H
030A 00             1149             DB      000H
030B 00             1150             DB      000H
030C 00             1151             DB      000H
030D 00             1152             DB      000H
030E 00             1153             DB      000H
030F 00             1154             DB      000H
0310 00             1155             DB      000H
0311 00             1156             DB      000H
0312 80             1157             DB      080H
0313 00             1158             DB      000H
0314 00             1159             DB      000H
0315 80             1160             DB      080H
0316 00             1161             DB      000H
0317 00             1162             DB      000H
0318 00             1163             DB      000H
0319 80             1164             DB      080H
031A C0             1165             DB      0C0H
031B 80             1166             DB      080H
031C 80             1167             DB      080H
031D C0             1168             DB      0C0H
031E 80             1169             DB      080H
031F 00             1170             DB      000H
0320 00             1171             DB      000H
0321 80             1172             DB      080H
0322 C0             1173             DB      0C0H
0323 C0             1174             DB      0C0H
0324 C0             1175             DB      0C0H
0325 C0             1176             DB      0C0H
0326 80             1177             DB      080H
0327 00             1178             DB      000H
0328 00             1179             DB      000H
A51 MACRO ASSEMBLER  TEXT1                                                                01/10/2019 19:42:26 PAGE    19

0329 00             1180             DB      000H
032A 80             1181             DB      080H
032B C0             1182             DB      0C0H
032C C0             1183             DB      0C0H
032D 80             1184             DB      080H
032E 00             1185             DB      000H
032F 00             1186             DB      000H
0330 00             1187             DB      000H
0331 00             1188             DB      000H
0332 00             1189             DB      000H
0333 80             1190             DB      080H
0334 80             1191             DB      080H
0335 00             1192             DB      000H
0336 00             1193             DB      000H
0337 00             1194             DB      000H
0338 00             1195             DB      000H
0339 00             1196             DB      000H
033A 00             1197             DB      000H
033B 00             1198             DB      000H
033C 00             1199             DB      000H
033D 00             1200             DB      000H
033E 00             1201             DB      000H
033F 00             1202             DB      000H
0340 00             1203             DB      000H
0341 00             1204             DB      000H
0342 00             1205             DB      000H
0343 00             1206             DB      000H
0344 00             1207             DB      000H
0345 00             1208             DB      000H
0346 00             1209             DB      000H
0347 00             1210             DB      000H
0348 00             1211             DB      000H
0349 00             1212             DB      000H
034A 00             1213             DB      000H
034B 00             1214             DB      000H
034C 00             1215             DB      000H
034D 00             1216             DB      000H
034E 00             1217             DB      000H
034F 00             1218             DB      000H
0350 00             1219             DB      000H
0351 00             1220             DB      000H
0352 00             1221             DB      000H
0353 00             1222             DB      000H
0354 00             1223             DB      000H
0355 00             1224             DB      000H
0356 00             1225             DB      000H
0357 00             1226             DB      000H
0358 00             1227             DB      000H
0359 00             1228             DB      000H
035A 36             1229             DB      036H
035B 00             1230             DB      000H
035C 00             1231             DB      000H
035D 36             1232             DB      036H
035E 00             1233             DB      000H
035F 00             1234             DB      000H
0360 00             1235             DB      000H
0361 00             1236             DB      000H
0362 36             1237             DB      036H
0363 36             1238             DB      036H
0364 36             1239             DB      036H
0365 36             1240             DB      036H
0366 00             1241             DB      000H
0367 00             1242             DB      000H
0368 00             1243             DB      000H
0369 00             1244             DB      000H
036A 00             1245             DB      000H
A51 MACRO ASSEMBLER  TEXT1                                                                01/10/2019 19:42:26 PAGE    20

036B 36             1246             DB      036H
036C 36             1247             DB      036H
036D 00             1248             DB      000H
036E 00             1249             DB      000H
036F 00             1250             DB      000H
0370 00             1251             DB      000H
0371 00             1252             DB      000H
0372 00             1253             DB      000H
0373 00             1254             DB      000H
0374 00             1255             DB      000H
0375 00             1256             DB      000H
0376 00             1257             DB      000H
0377 00             1258             DB      000H
0378 00             1259             DB      000H
0379 00             1260             DB      000H
037A 00             1261             DB      000H
037B 00             1262             DB      000H
037C 00             1263             DB      000H
037D 00             1264             DB      000H
037E 00             1265             DB      000H
037F 00             1266             DB      000H
0380 00             1267             DB      000H
0381 00             1268             DB      000H
0382 00             1269             DB      000H
0383 00             1270             DB      000H
0384 00             1271             DB      000H
0385 00             1272             DB      000H
0386 00             1273             DB      000H
0387 00             1274             DB      000H
0388 00             1275             DB      000H
0389 00             1276             DB      000H
038A 00             1277             DB      000H
038B 62             1278             DB      062H
038C 00             1279             DB      000H
038D 00             1280             DB      000H
038E 00             1281             DB      000H
038F 00             1282             DB      000H
0390 00             1283             DB      000H
0391 00             1284             DB      000H
0392 62             1285             DB      062H
0393 C4             1286             DB      0C4H
0394 62             1287             DB      062H
0395 00             1288             DB      000H
0396 00             1289             DB      000H
0397 00             1290             DB      000H
0398 00             1291             DB      000H
0399 62             1292             DB      062H
039A E3             1293             DB      0E3H
039B C4             1294             DB      0C4H
039C C4             1295             DB      0C4H
039D 62             1296             DB      062H
039E 00             1297             DB      000H
039F 00             1298             DB      000H
03A0 00             1299             DB      000H
03A1 00             1300             DB      000H
03A2 62             1301             DB      062H
03A3 E3             1302             DB      0E3H
03A4 C4             1303             DB      0C4H
03A5 C4             1304             DB      0C4H
03A6 62             1305             DB      062H
03A7 00             1306             DB      000H
03A8 00             1307             DB      000H
03A9 00             1308             DB      000H
03AA 00             1309             DB      000H
03AB 62             1310             DB      062H
03AC E3             1311             DB      0E3H
A51 MACRO ASSEMBLER  TEXT1                                                                01/10/2019 19:42:26 PAGE    21

03AD 62             1312             DB      062H
03AE 00             1313             DB      000H
03AF 00             1314             DB      000H
03B0 00             1315             DB      000H
03B1 00             1316             DB      000H
03B2 00             1317             DB      000H
03B3 00             1318             DB      000H
03B4 62             1319             DB      062H
03B5 00             1320             DB      000H
03B6 00             1321             DB      000H
03B7 00             1322             DB      000H
03B8 00             1323             DB      000H
03B9 00             1324             DB      000H
03BA 00             1325             DB      000H
03BB 00             1326             DB      000H
03BC 00             1327             DB      000H
03BD 00             1328             DB      000H
03BE 00             1329             DB      000H
03BF 00             1330             DB      000H
03C0 00             1331             DB      000H
03C1 00             1332             DB      000H
03C2 00             1333             DB      000H
03C3 98             1334             DB      098H
03C4 98             1335             DB      098H
03C5 00             1336             DB      000H
03C6 00             1337             DB      000H
03C7 00             1338             DB      000H
03C8 00             1339             DB      000H
03C9 00             1340             DB      000H
03CA 1B             1341             DB      01BH
03CB 1B             1342             DB      01BH
03CC 1B             1343             DB      01BH
03CD 1B             1344             DB      01BH
03CE 00             1345             DB      000H
03CF 00             1346             DB      000H
03D0 00             1347             DB      000H
03D1 01             1348             DB      001H
03D2 01             1349             DB      001H
03D3 01             1350             DB      001H
03D4 01             1351             DB      001H
03D5 01             1352             DB      001H
03D6 01             1353             DB      001H
03D7 00             1354             DB      000H
03D8 01             1355             DB      001H
03D9 01             1356             DB      001H
03DA 01             1357             DB      001H
03DB 01             1358             DB      001H
03DC 01             1359             DB      001H
03DD 01             1360             DB      001H
03DE 01             1361             DB      001H
03DF 01             1362             DB      001H
03E0 01             1363             DB      001H
03E1 01             1364             DB      001H
03E2 01             1365             DB      001H
03E3 01             1366             DB      001H
03E4 01             1367             DB      001H
03E5 01             1368             DB      001H
03E6 01             1369             DB      001H
03E7 01             1370             DB      001H
03E8 00             1371             DB      000H
03E9 01             1372             DB      001H
03EA 01             1373             DB      001H
03EB 01             1374             DB      001H
03EC 01             1375             DB      001H
03ED 01             1376             DB      001H
03EE 01             1377             DB      001H
A51 MACRO ASSEMBLER  TEXT1                                                                01/10/2019 19:42:26 PAGE    22

03EF 00             1378             DB      000H
03F0 00             1379             DB      000H
03F1 00             1380             DB      000H
03F2 1B             1381             DB      01BH
03F3 1B             1382             DB      01BH
03F4 1B             1383             DB      01BH
03F5 1B             1384             DB      01BH
03F6 00             1385             DB      000H
03F7 00             1386             DB      000H
03F8 00             1387             DB      000H
03F9 00             1388             DB      000H
03FA 00             1389             DB      000H
03FB 98             1390             DB      098H
03FC 98             1391             DB      098H
03FD 00             1392             DB      000H
03FE 00             1393             DB      000H
03FF 00             1394             DB      000H
0400 00             1395             DB      000H
0401 00             1396             DB      000H
0402 00             1397             DB      000H
0403 00             1398             DB      000H
0404 00             1399             DB      000H
0405 00             1400             DB      000H
0406 00             1401             DB      000H
0407 00             1402             DB      000H
0408 00             1403             DB      000H
0409 00             1404             DB      000H
040A 00             1405             DB      000H
040B 00             1406             DB      000H
040C 00             1407             DB      000H
040D 00             1408             DB      000H
040E 00             1409             DB      000H
040F 00             1410             DB      000H
0410 00             1411             DB      000H
0411 00             1412             DB      000H
0412 00             1413             DB      000H
0413 00             1414             DB      000H
0414 00             1415             DB      000H
0415 00             1416             DB      000H
0416 00             1417             DB      000H
0417 00             1418             DB      000H
0418 00             1419             DB      000H
0419 00             1420             DB      000H
041A 00             1421             DB      000H
041B FF             1422             DB      0FFH
041C FF             1423             DB      0FFH
041D 00             1424             DB      000H
041E 00             1425             DB      000H
041F 00             1426             DB      000H
0420 00             1427             DB      000H
0421 00             1428             DB      000H
0422 00             1429             DB      000H
0423 FF             1430             DB      0FFH
0424 FF             1431             DB      0FFH
0425 00             1432             DB      000H
0426 00             1433             DB      000H
0427 00             1434             DB      000H
0428 00             1435             DB      000H
0429 00             1436             DB      000H
042A 00             1437             DB      000H
042B 00             1438             DB      000H
042C 00             1439             DB      000H
042D 00             1440             DB      000H
042E 00             1441             DB      000H
042F 00             1442             DB      000H
0430 00             1443             DB      000H
A51 MACRO ASSEMBLER  TEXT1                                                                01/10/2019 19:42:26 PAGE    23

0431 00             1444             DB      000H
0432 00             1445             DB      000H
0433 00             1446             DB      000H
0434 00             1447             DB      000H
0435 00             1448             DB      000H
0436 00             1449             DB      000H
0437 00             1450             DB      000H
0438 00             1451             DB      000H
0439 00             1452             DB      000H
043A 00             1453             DB      000H
043B 00             1454             DB      000H
043C 00             1455             DB      000H
043D 00             1456             DB      000H
043E 00             1457             DB      000H
043F 00             1458             DB      000H
0440 00             1459             DB      000H
0441 00             1460             DB      000H
0442 FF             1461             DB      0FFH
0443 FF             1462             DB      0FFH
0444 FF             1463             DB      0FFH
0445 FF             1464             DB      0FFH
0446 00             1465             DB      000H
0447 00             1466             DB      000H
0448 00             1467             DB      000H
0449 FF             1468             DB      0FFH
044A 67             1469             DB      067H
044B 67             1470             DB      067H
044C 67             1471             DB      067H
044D 67             1472             DB      067H
044E FF             1473             DB      0FFH
044F 00             1474             DB      000H
0450 FF             1475             DB      0FFH
0451 67             1476             DB      067H
0452 0B             1477             DB      00BH
0453 12             1478             DB      012H
0454 12             1479             DB      012H
0455 1C             1480             DB      01CH
0456 67             1481             DB      067H
0457 FF             1482             DB      0FFH
0458 FF             1483             DB      0FFH
0459 67             1484             DB      067H
045A 12             1485             DB      012H
045B 0B             1486             DB      00BH
045C 1C             1487             DB      01CH
045D 12             1488             DB      012H
045E 67             1489             DB      067H
045F FF             1490             DB      0FFH
0460 FF             1491             DB      0FFH
0461 67             1492             DB      067H
0462 12             1493             DB      012H
0463 1C             1494             DB      01CH
0464 0B             1495             DB      00BH
0465 12             1496             DB      012H
0466 67             1497             DB      067H
0467 FF             1498             DB      0FFH
0468 FF             1499             DB      0FFH
0469 67             1500             DB      067H
046A 1C             1501             DB      01CH
046B 12             1502             DB      012H
046C 12             1503             DB      012H
046D 0B             1504             DB      00BH
046E 67             1505             DB      067H
046F FF             1506             DB      0FFH
0470 00             1507             DB      000H
0471 FF             1508             DB      0FFH
0472 67             1509             DB      067H
A51 MACRO ASSEMBLER  TEXT1                                                                01/10/2019 19:42:26 PAGE    24

0473 67             1510             DB      067H
0474 67             1511             DB      067H
0475 67             1512             DB      067H
0476 FF             1513             DB      0FFH
0477 00             1514             DB      000H
0478 00             1515             DB      000H
0479 00             1516             DB      000H
047A FF             1517             DB      0FFH
047B FF             1518             DB      0FFH
047C FF             1519             DB      0FFH
047D FF             1520             DB      0FFH
047E 00             1521             DB      000H
047F 00             1522             DB      000H
                    1523     
                    1524     
----                1525             RSEG  ?C_INITSEG
0000 60             1526             DB      060H
0001 40             1527             DB      040H
0002 0000     F     1528             DW      buf_R
0004 00             1529             DB      000H
0005 00000000       1530             DB  000H,000H,000H,000H,000H,000H,000H,000H,000H,000H
0009 00000000                
000D 0000                    
000F 00000000       1531             DB  000H,000H,000H,000H,000H,000H,000H,000H,000H,000H
0013 00000000                
0017 0000                    
0019 00000000       1532             DB  000H,000H,000H,000H,000H,000H,000H,000H,000H,000H
001D 00000000                
0021 0000                    
0023 00000000       1533             DB  000H,000H,000H,000H,000H,000H,000H,000H,000H,000H
0027 00000000                
002B 0000                    
002D 00000000       1534             DB  000H,000H,000H,000H,000H,000H,000H,000H,000H,000H
0031 00000000                
0035 0000                    
0037 00000000       1535             DB  000H,000H,000H,000H,000H,000H,000H,000H,000H,000H
003B 00000000                
003F 0000                    
0041 000000         1536             DB  000H,000H,000H
                    1537     
                    1538     
0044 60             1539             DB      060H
0045 40             1540             DB      040H
0046 0000     F     1541             DW      buf_G
0048 00             1542             DB      000H
0049 00000000       1543             DB  000H,000H,000H,000H,000H,000H,000H,000H,000H,000H
004D 00000000                
0051 0000                    
0053 00000000       1544             DB  000H,000H,000H,000H,000H,000H,000H,000H,000H,000H
0057 00000000                
005B 0000                    
005D 00000000       1545             DB  000H,000H,000H,000H,000H,000H,000H,000H,000H,000H
0061 00000000                
0065 0000                    
0067 00000000       1546             DB  000H,000H,000H,000H,000H,000H,000H,000H,000H,000H
006B 00000000                
006F 0000                    
0071 00000000       1547             DB  000H,000H,000H,000H,000H,000H,000H,000H,000H,000H
0075 00000000                
0079 0000                    
007B 00000000       1548             DB  000H,000H,000H,000H,000H,000H,000H,000H,000H,000H
007F 00000000                
0083 0000                    
0085 000000         1549             DB  000H,000H,000H
                    1550     
                    1551     
A51 MACRO ASSEMBLER  TEXT1                                                                01/10/2019 19:42:26 PAGE    25

0088 60             1552             DB      060H
0089 40             1553             DB      040H
008A 0000     F     1554             DW      buf_B
008C 00             1555             DB      000H
008D 00000000       1556             DB  000H,000H,000H,000H,000H,000H,000H,000H,000H,000H
0091 00000000                
0095 0000                    
0097 00000000       1557             DB  000H,000H,000H,000H,000H,000H,000H,000H,000H,000H
009B 00000000                
009F 0000                    
00A1 00000000       1558             DB  000H,000H,000H,000H,000H,000H,000H,000H,000H,000H
00A5 00000000                
00A9 0000                    
00AB 00000000       1559             DB  000H,000H,000H,000H,000H,000H,000H,000H,000H,000H
00AF 00000000                
00B3 0000                    
00B5 00000000       1560             DB  000H,000H,000H,000H,000H,000H,000H,000H,000H,000H
00B9 00000000                
00BD 0000                    
00BF 00000000       1561             DB  000H,000H,000H,000H,000H,000H,000H,000H,000H,000H
00C3 00000000                
00C7 0000                    
00C9 000000         1562             DB  000H,000H,000H
                    1563     
                    1564     
                    1565     ; #include <REG51.H>
                    1566     ; #include <intRIns.h>
                    1567     ; #include <ABSACC.h>
                    1568     ; #include <math.h>
                    1569     ; #include <stdio.h>
                    1570     ; #include <stdlib.h>
                    1571     ; #define uint unsigned int 
                    1572     ; #define uchar unsigned char
                    1573     ; #define numLEDs 64
                    1574     ; #define N 5
                    1575     ; 
                    1576     ; 
                    1577     ; sfr AUXR =0x8E;
                    1578     ; sbit P10=P1^0;
                    1579     ; sbit P11=P1^1;
                    1580     ; //sbit P12=P1^2;
                    1581     ; sbit P13=P1^3;
                    1582     ; sbit WS2812 = P1^2;
                    1583     ; 
                    1584     ; sbit cs=P1^6;
                    1585     ; sbit clk=P1^7;
                    1586     ; sbit key=P1^5;
                    1587     ; sbit dat=P1^4;
                    1588     ; 
                    1589     ; 
                    1590     ; unsigned char  buf_R[numLEDs] = { 0 };//????o?
                    1591     ; unsigned char  buf_G[numLEDs] = { 0 };
                    1592     ; unsigned char  buf_B[numLEDs] = { 0 };
                    1593     ; void RGB_Set_Up();  //?0??
                    1594     ; void RGB_Set_Down(); //?1??
                    1595     ; void Delay1ms(uchar k);
                    1596     ; void SetPointColour(unsigned int num, unsigned char r, unsigned char g, unsigned char b);
                    1597     ; void SentPixelColor(unsigned char num,unsigned long c);
                    1598     ; void HAL_Delay(unsigned int t)
                    1599     
----                1600             RSEG  ?PR?_HAL_Delay?TEXT1
0000                1601     L?0422:
                    1602             USING   0
0000                1603     L?0423:
0000 E0             1604             MOVX    A,@DPTR
0001 FE             1605             MOV     R6,A
A51 MACRO ASSEMBLER  TEXT1                                                                01/10/2019 19:42:26 PAGE    26

0002 A3             1606             INC     DPTR
0003 E0             1607             MOVX    A,@DPTR
0004 FF             1608             MOV     R7,A
0005                1609     _HAL_Delay:
                    1610             USING   0
                    1611                             ; SOURCE LINE # 34
                    1612     ;---- Variable 't?040' assigned to Register 'R6/R7' ----
                    1613     ; {
                    1614                             ; SOURCE LINE # 35
                    1615     ;       unsigned int x, y;
                    1616     ;       for (x = 114; x>0; x--)
                    1617                             ; SOURCE LINE # 37
                    1618     ;---- Variable 'x?041' assigned to Register 'R4/R5' ----
0005 7D72           1619             MOV     R5,#072H
0007 7C00           1620             MOV     R4,#00H
0009                1621     ?C0001:
                    1622     ;               for (y = t; y>0; y--);
                    1623                             ; SOURCE LINE # 38
                    1624     ;---- Variable 'y?042' assigned to Register 'R2/R3' ----
0009 AB07           1625             MOV     R3,AR7
000B AA06           1626             MOV     R2,AR6
000D                1627     ?C0004:
000D D3             1628             SETB    C
000E EB             1629             MOV     A,R3
000F 9400           1630             SUBB    A,#00H
0011 EA             1631             MOV     A,R2
0012 9400           1632             SUBB    A,#00H
0014 4007           1633             JC      ?C0003
0016 EB             1634             MOV     A,R3
0017 1B             1635             DEC     R3
0018 70F3           1636             JNZ     ?C0004
001A 1A             1637             DEC     R2
001B                1638     ?C0301:
001B 80F0           1639             SJMP    ?C0004
001D                1640     ?C0003:
001D ED             1641             MOV     A,R5
001E 1D             1642             DEC     R5
001F 7001           1643             JNZ     ?C0302
0021 1C             1644             DEC     R4
0022                1645     ?C0302:
0022 ED             1646             MOV     A,R5
0023 4C             1647             ORL     A,R4
0024 70E3           1648             JNZ     ?C0001
                    1649     ; }
                    1650                             ; SOURCE LINE # 39
0026                1651     ?C0007:
0026 22             1652             RET     
                    1653     ; END OF _HAL_Delay
                    1654     
                    1655     ; void ReSet()
                    1656     
----                1657             RSEG  ?PR?ReSet?TEXT1
0000                1658     ReSet:
                    1659             USING   0
                    1660                             ; SOURCE LINE # 40
                    1661     ; {
                    1662                             ; SOURCE LINE # 41
                    1663     ;       uint i;
                    1664     ;       for(i=0;i<64;i++)
                    1665                             ; SOURCE LINE # 43
0000 E4             1666             CLR     A
0001 900000   F     1667             MOV     DPTR,#i?143
0004 F0             1668             MOVX    @DPTR,A
0005 A3             1669             INC     DPTR
0006 F0             1670             MOVX    @DPTR,A
0007                1671     ?C0008:
A51 MACRO ASSEMBLER  TEXT1                                                                01/10/2019 19:42:26 PAGE    27

0007 900000   F     1672             MOV     DPTR,#i?143
000A E0             1673             MOVX    A,@DPTR
000B FE             1674             MOV     R6,A
000C A3             1675             INC     DPTR
000D E0             1676             MOVX    A,@DPTR
000E FF             1677             MOV     R7,A
000F C3             1678             CLR     C
0010 9440           1679             SUBB    A,#040H
0012 EE             1680             MOV     A,R6
0013 9400           1681             SUBB    A,#00H
0015 5021           1682             JNC     ?C0011
                    1683     ;       {
                    1684                             ; SOURCE LINE # 44
                    1685     ;       SentPixelColor(i,0);
                    1686                             ; SOURCE LINE # 45
0017 C007           1687             PUSH    AR7
0019 900000   F     1688             MOV     DPTR,#?_SentPixelColor?BYTE+01H
001C 120000   F     1689             LCALL   ?C?LSTKXDATA
001F 00             1690             DB      00H
0020 00             1691             DB      00H
0021 00             1692             DB      00H
0022 00             1693             DB      00H
0023 D007           1694             POP     AR7
0025 120000   F     1695             LCALL   _SentPixelColor
                    1696     ;       }
                    1697                             ; SOURCE LINE # 46
0028 900000   F     1698             MOV     DPTR,#i?143+01H
002B E0             1699             MOVX    A,@DPTR
002C 04             1700             INC     A
002D F0             1701             MOVX    @DPTR,A
002E 70D7           1702             JNZ     ?C0008
0030 900000   F     1703             MOV     DPTR,#i?143
0033 E0             1704             MOVX    A,@DPTR
0034 04             1705             INC     A
0035 F0             1706             MOVX    @DPTR,A
0036                1707     ?C0303:
0036 80CF           1708             SJMP    ?C0008
                    1709     ; }
                    1710                             ; SOURCE LINE # 47
0038                1711     ?C0011:
0038 22             1712             RET     
                    1713     ; END OF ReSet
                    1714     
                    1715     ; 
                    1716     ; 
                    1717     ; //????
                    1718     ; void Delay50us()              //@22.1184MHz
                    1719     
----                1720             RSEG  ?PR?Delay50us?TEXT1
0000                1721     Delay50us:
                    1722             USING   0
                    1723                             ; SOURCE LINE # 51
                    1724     ; {
                    1725                             ; SOURCE LINE # 52
                    1726     ;       unsigned char i, j;
                    1727     ;       _nop_();
                    1728                             ; SOURCE LINE # 54
0000 00             1729             NOP     
                    1730     ;       _nop_();
                    1731                             ; SOURCE LINE # 55
0001 00             1732             NOP     
                    1733     ;       i = 2;
                    1734                             ; SOURCE LINE # 56
                    1735     ;---- Variable 'i?244' assigned to Register 'R7' ----
0002 7F02           1736             MOV     R7,#02H
                    1737     ;       j = 15;
A51 MACRO ASSEMBLER  TEXT1                                                                01/10/2019 19:42:26 PAGE    28

                    1738                             ; SOURCE LINE # 57
                    1739     ;---- Variable 'j?245' assigned to Register 'R6' ----
0004 7E0F           1740             MOV     R6,#0FH
                    1741     ;       do
                    1742     ;       {
                    1743                             ; SOURCE LINE # 59
0006                1744     ?C0015:
                    1745     ;               while (--j);
                    1746                             ; SOURCE LINE # 60
0006 DEFE           1747             DJNZ    R6,?C0015
0008                1748     ?C0016:
                    1749     ;       } while (--i);
                    1750                             ; SOURCE LINE # 61
0008                1751     ?C0012:
0008 DFFC           1752             DJNZ    R7,?C0015
                    1753     ; }
                    1754                             ; SOURCE LINE # 62
000A 22             1755             RET     
                    1756     ; END OF Delay50us
                    1757     
                    1758     ; // 850ns 400ns 150ns
                    1759     ; void RGB_Set_Up()
                    1760     
----                1761             RSEG  ?PR?RGB_Set_Up?TEXT1
0000                1762     RGB_Set_Up:
                    1763                             ; SOURCE LINE # 64
                    1764     ; {
                    1765                             ; SOURCE LINE # 65
                    1766     ;       WS2812 = 1;
                    1767                             ; SOURCE LINE # 66
0000 D292           1768             SETB    WS2812
                    1769     ;       //22.1184MHz
                    1770     ;       _nop_(); _nop_(); _nop_(); _nop_(); _nop_(); _nop_(); _nop_(); _nop_(); _nop_(); _n
                             op_();
                    1771                             ; SOURCE LINE # 68
0002 00             1772             NOP     
0003 00             1773             NOP     
0004 00             1774             NOP     
0005 00             1775             NOP     
0006 00             1776             NOP     
0007 00             1777             NOP     
0008 00             1778             NOP     
0009 00             1779             NOP     
000A 00             1780             NOP     
000B 00             1781             NOP     
                    1782     ;       _nop_(); _nop_(); _nop_();// _nop_(); _nop_(); _nop_(); _nop_();
                    1783                             ; SOURCE LINE # 69
000C 00             1784             NOP     
000D 00             1785             NOP     
000E 00             1786             NOP     
                    1787     ;       WS2812 = 0;
                    1788                             ; SOURCE LINE # 70
000F C292           1789             CLR     WS2812
                    1790     ; }
                    1791                             ; SOURCE LINE # 71
0011 22             1792             RET     
                    1793     ; END OF RGB_Set_Up
                    1794     
                    1795     ; //400ns 850ns 150ns
                    1796     ; void RGB_Set_Down()
                    1797     
----                1798             RSEG  ?PR?RGB_Set_Down?TEXT1
0000                1799     RGB_Set_Down:
                    1800                             ; SOURCE LINE # 73
                    1801     ; {
                    1802                             ; SOURCE LINE # 74
A51 MACRO ASSEMBLER  TEXT1                                                                01/10/2019 19:42:26 PAGE    29

                    1803     ;       WS2812 = 1;
                    1804                             ; SOURCE LINE # 75
0000 D292           1805             SETB    WS2812
                    1806     ;       //22.1184MHz
                    1807     ;       _nop_(); _nop_(); _nop_(); _nop_(); _nop_(); _nop_(); //_nop_();
                    1808                             ; SOURCE LINE # 77
0002 00             1809             NOP     
0003 00             1810             NOP     
0004 00             1811             NOP     
0005 00             1812             NOP     
0006 00             1813             NOP     
0007 00             1814             NOP     
                    1815     ;       WS2812 = 0;
                    1816                             ; SOURCE LINE # 78
0008 C292           1817             CLR     WS2812
                    1818     ; }
                    1819                             ; SOURCE LINE # 79
000A 22             1820             RET     
                    1821     ; END OF RGB_Set_Down
                    1822     
                    1823     ; 
                    1824     ; //?24??y?Y
                    1825     ; void Send_2811_24bits(unsigned char G8, unsigned char R8, unsigned char B8)
                    1826     
----                1827             RSEG  ?PR?_Send_2811_24bits?TEXT1
0000                1828     L?0417:
                    1829             USING   0
0000                1830     L?0418:
0000 7400     F     1831             MOV     A,#LOW (buf_G)
0002 2A             1832             ADD     A,R2
0003 F582           1833             MOV     DPL,A
0005 E4             1834             CLR     A
0006 3400     F     1835             ADDC    A,#HIGH (buf_G)
0008 F583           1836             MOV     DPH,A
000A E0             1837             MOVX    A,@DPTR
000B FF             1838             MOV     R7,A
000C 7400     F     1839             MOV     A,#LOW (buf_R)
000E 2A             1840             ADD     A,R2
000F F582           1841             MOV     DPL,A
0011 E4             1842             CLR     A
0012 3400     F     1843             ADDC    A,#HIGH (buf_R)
0014 F583           1844             MOV     DPH,A
0016 E0             1845             MOVX    A,@DPTR
0017 FD             1846             MOV     R5,A
0018 7400     F     1847             MOV     A,#LOW (buf_B)
001A 2A             1848             ADD     A,R2
001B F582           1849             MOV     DPL,A
001D E4             1850             CLR     A
001E 3400     F     1851             ADDC    A,#HIGH (buf_B)
0020 F583           1852             MOV     DPH,A
0022 E0             1853             MOVX    A,@DPTR
0023 FB             1854             MOV     R3,A
0024                1855     _Send_2811_24bits:
                    1856             USING   0
                    1857                             ; SOURCE LINE # 82
                    1858     ;---- Variable 'G8?546' assigned to Register 'R1' ----
0024 A907           1859             MOV     R1,AR7
                    1860     ;---- Variable 'B8?548' assigned to Register 'R3' ----
                    1861     ;---- Variable 'R8?547' assigned to Register 'R5' ----
                    1862     ; {
                    1863                             ; SOURCE LINE # 83
                    1864     ;       unsigned int n = 0;
                    1865                             ; SOURCE LINE # 84
                    1866     ;---- Variable 'n?549' assigned to Register 'R6/R7' ----
0026 E4             1867             CLR     A
0027 FF             1868             MOV     R7,A
A51 MACRO ASSEMBLER  TEXT1                                                                01/10/2019 19:42:26 PAGE    30

0028 FE             1869             MOV     R6,A
                    1870     ;       //?G8??
                    1871     ;       for (n = 0; n<8; n++)
                    1872                             ; SOURCE LINE # 86
0029                1873     ?C0020:
                    1874     ;       {
                    1875                             ; SOURCE LINE # 87
                    1876     ;               G8 <<= n;
                    1877                             ; SOURCE LINE # 88
0029 AC07           1878             MOV     R4,AR7
002B E9             1879             MOV     A,R1
002C A804           1880             MOV     R0,AR4
002E 08             1881             INC     R0
002F 8002           1882             SJMP    ?C0305
0031                1883     ?C0304:
0031 C3             1884             CLR     C
0032 33             1885             RLC     A
0033                1886     ?C0305:
0033 D8FC           1887             DJNZ    R0,?C0304
0035 F9             1888             MOV     R1,A
                    1889     ;               if (G8 & 0x80 == 0x80)
                    1890                             ; SOURCE LINE # 89
0036 30E005         1891             JNB     ACC.0,?C0023
                    1892     ;               {
                    1893                             ; SOURCE LINE # 90
                    1894     ;                       RGB_Set_Up();
                    1895                             ; SOURCE LINE # 91
0039 120000   F     1896             LCALL   RGB_Set_Up
                    1897     ;               }
                    1898                             ; SOURCE LINE # 92
003C 8003           1899             SJMP    ?C0022
003E                1900     ?C0023:
                    1901     ;               else
                    1902     ;               {
                    1903                             ; SOURCE LINE # 94
                    1904     ;                       RGB_Set_Down();
                    1905                             ; SOURCE LINE # 95
003E 120000   F     1906             LCALL   RGB_Set_Down
                    1907     ;               }
                    1908                             ; SOURCE LINE # 96
                    1909     ;       }
                    1910                             ; SOURCE LINE # 97
0041                1911     ?C0022:
0041 0F             1912             INC     R7
0042 BF0001         1913             CJNE    R7,#00H,?C0306
0045 0E             1914             INC     R6
0046                1915     ?C0306:
0046 EF             1916             MOV     A,R7
0047 6408           1917             XRL     A,#08H
0049 4E             1918             ORL     A,R6
004A 70DD           1919             JNZ     ?C0020
004C                1920     ?C0021:
                    1921     ;       //?R8??
                    1922     ;       for (n = 0; n<8; n++)
                    1923                             ; SOURCE LINE # 99
004C E4             1924             CLR     A
004D FE             1925             MOV     R6,A
004E FF             1926             MOV     R7,A
004F                1927     ?C0025:
                    1928     ;       {
                    1929                             ; SOURCE LINE # 100
                    1930     ;               R8 <<= n;
                    1931                             ; SOURCE LINE # 101
004F AC07           1932             MOV     R4,AR7
0051 ED             1933             MOV     A,R5
0052 A804           1934             MOV     R0,AR4
A51 MACRO ASSEMBLER  TEXT1                                                                01/10/2019 19:42:26 PAGE    31

0054 08             1935             INC     R0
0055 8002           1936             SJMP    ?C0308
0057                1937     ?C0307:
0057 C3             1938             CLR     C
0058 33             1939             RLC     A
0059                1940     ?C0308:
0059 D8FC           1941             DJNZ    R0,?C0307
005B FD             1942             MOV     R5,A
                    1943     ;               if (R8 & 0x80 == 0x80)
                    1944                             ; SOURCE LINE # 102
005C 30E005         1945             JNB     ACC.0,?C0028
                    1946     ;               {
                    1947                             ; SOURCE LINE # 103
                    1948     ;                       RGB_Set_Up();
                    1949                             ; SOURCE LINE # 104
005F 120000   F     1950             LCALL   RGB_Set_Up
                    1951     ;               }
                    1952                             ; SOURCE LINE # 105
0062 8003           1953             SJMP    ?C0027
0064                1954     ?C0028:
                    1955     ;               else
                    1956     ;               {
                    1957                             ; SOURCE LINE # 107
                    1958     ;                       RGB_Set_Down();
                    1959                             ; SOURCE LINE # 108
0064 120000   F     1960             LCALL   RGB_Set_Down
                    1961     ;               }
                    1962                             ; SOURCE LINE # 109
                    1963     ;       }
                    1964                             ; SOURCE LINE # 110
0067                1965     ?C0027:
0067 0F             1966             INC     R7
0068 BF0001         1967             CJNE    R7,#00H,?C0309
006B 0E             1968             INC     R6
006C                1969     ?C0309:
006C EF             1970             MOV     A,R7
006D 6408           1971             XRL     A,#08H
006F 4E             1972             ORL     A,R6
0070 70DD           1973             JNZ     ?C0025
0072                1974     ?C0026:
                    1975     ;       //?B8??
                    1976     ;       for (n = 0; n<8; n++)
                    1977                             ; SOURCE LINE # 112
0072 E4             1978             CLR     A
0073 FE             1979             MOV     R6,A
0074 FF             1980             MOV     R7,A
0075                1981     ?C0030:
                    1982     ;       {
                    1983                             ; SOURCE LINE # 113
                    1984     ;               B8 <<= n;
                    1985                             ; SOURCE LINE # 114
0075 AD07           1986             MOV     R5,AR7
0077 EB             1987             MOV     A,R3
0078 A805           1988             MOV     R0,AR5
007A 08             1989             INC     R0
007B 8002           1990             SJMP    ?C0311
007D                1991     ?C0310:
007D C3             1992             CLR     C
007E 33             1993             RLC     A
007F                1994     ?C0311:
007F D8FC           1995             DJNZ    R0,?C0310
0081 FB             1996             MOV     R3,A
                    1997     ;               if (B8 & 0x80 == 0x80)
                    1998                             ; SOURCE LINE # 115
0082 30E005         1999             JNB     ACC.0,?C0033
                    2000     ;               {
A51 MACRO ASSEMBLER  TEXT1                                                                01/10/2019 19:42:26 PAGE    32

                    2001                             ; SOURCE LINE # 116
                    2002     ;                       RGB_Set_Up();
                    2003                             ; SOURCE LINE # 117
0085 120000   F     2004             LCALL   RGB_Set_Up
                    2005     ;               }
                    2006                             ; SOURCE LINE # 118
0088 8003           2007             SJMP    ?C0032
008A                2008     ?C0033:
                    2009     ;               else
                    2010     ;               {
                    2011                             ; SOURCE LINE # 120
                    2012     ;                       RGB_Set_Down();
                    2013                             ; SOURCE LINE # 121
008A 120000   F     2014             LCALL   RGB_Set_Down
                    2015     ;               }
                    2016                             ; SOURCE LINE # 122
                    2017     ;       }
                    2018                             ; SOURCE LINE # 123
008D                2019     ?C0032:
008D 0F             2020             INC     R7
008E BF0001         2021             CJNE    R7,#00H,?C0312
0091 0E             2022             INC     R6
0092                2023     ?C0312:
0092 EF             2024             MOV     A,R7
0093 6408           2025             XRL     A,#08H
0095 4E             2026             ORL     A,R6
0096 70DD           2027             JNZ     ?C0030
                    2028     ; }
                    2029                             ; SOURCE LINE # 124
0098                2030     ?C0035:
0098 22             2031             RET     
                    2032     ; END OF _Send_2811_24bits
                    2033     
                    2034     ; //?????
                    2035     ; void RGB_Rst()
                    2036     
----                2037             RSEG  ?PR?RGB_Rst?TEXT1
0000                2038     RGB_Rst:
                    2039             USING   0
                    2040                             ; SOURCE LINE # 126
                    2041     ; {
                    2042                             ; SOURCE LINE # 127
                    2043     ;       WS2812 = 0;
                    2044                             ; SOURCE LINE # 128
0000 C292           2045             CLR     WS2812
                    2046     ;       Delay50us();
                    2047                             ; SOURCE LINE # 129
0002 020000   F     2048             LJMP    Delay50us
                    2049     ; END OF RGB_Rst
                    2050     
                    2051     ; }
                    2052     ; //?24??y?YGRB??aRGB
                    2053     ; void Set_Colour(unsigned char r, unsigned char g, unsigned char b)
                    2054     
----                2055             RSEG  ?PR?_Set_Colour?TEXT1
0000                2056     _Set_Colour:
                    2057             USING   0
                    2058                             ; SOURCE LINE # 132
                    2059     ;---- Variable 'r?750' assigned to Register 'R7' ----
                    2060     ;---- Variable 'b?752' assigned to Register 'R3' ----
                    2061     ;---- Variable 'g?751' assigned to Register 'R5' ----
                    2062     ; {
                    2063                             ; SOURCE LINE # 133
                    2064     ;       unsigned char i;
                    2065     ;       for (i = 0; i<numLEDs; i++)
                    2066                             ; SOURCE LINE # 135
A51 MACRO ASSEMBLER  TEXT1                                                                01/10/2019 19:42:26 PAGE    33

                    2067     ;---- Variable 'i?753' assigned to Register 'R2' ----
0000 E4             2068             CLR     A
0001 FA             2069             MOV     R2,A
0002                2070     ?C0037:
                    2071     ;       {
                    2072                             ; SOURCE LINE # 136
                    2073     ;               buf_R[i] = r; //?o3?
                    2074                             ; SOURCE LINE # 137
0002 7400     F     2075             MOV     A,#LOW (buf_R)
0004 2A             2076             ADD     A,R2
0005 F582           2077             MOV     DPL,A
0007 E4             2078             CLR     A
0008 3400     F     2079             ADDC    A,#HIGH (buf_R)
000A F583           2080             MOV     DPH,A
000C EF             2081             MOV     A,R7
000D F0             2082             MOVX    @DPTR,A
                    2083     ;               buf_G[i] = g;
                    2084                             ; SOURCE LINE # 138
000E 7400     F     2085             MOV     A,#LOW (buf_G)
0010 2A             2086             ADD     A,R2
0011 F582           2087             MOV     DPL,A
0013 E4             2088             CLR     A
0014 3400     F     2089             ADDC    A,#HIGH (buf_G)
0016 F583           2090             MOV     DPH,A
0018 ED             2091             MOV     A,R5
0019 F0             2092             MOVX    @DPTR,A
                    2093     ;               buf_B[i] = b;
                    2094                             ; SOURCE LINE # 139
001A 7400     F     2095             MOV     A,#LOW (buf_B)
001C 2A             2096             ADD     A,R2
001D F582           2097             MOV     DPL,A
001F E4             2098             CLR     A
0020 3400     F     2099             ADDC    A,#HIGH (buf_B)
0022 F583           2100             MOV     DPH,A
0024 EB             2101             MOV     A,R3
0025 F0             2102             MOVX    @DPTR,A
                    2103     ;       }
                    2104                             ; SOURCE LINE # 140
0026 0A             2105             INC     R2
0027 EA             2106             MOV     A,R2
0028 B440D7         2107             CJNE    A,#040H,?C0037
002B                2108     ?C0038:
                    2109     ;       for (i = 0; i<numLEDs; i++)
                    2110                             ; SOURCE LINE # 141
002B E4             2111             CLR     A
002C FA             2112             MOV     R2,A
002D                2113     ?C0040:
                    2114     ;       {
                    2115                             ; SOURCE LINE # 142
                    2116     ;               Send_2811_24bits(buf_G[i], buf_R[i], buf_B[i]);//????
                    2117                             ; SOURCE LINE # 143
002D 120000   F     2118             LCALL   L?0417
                    2119     ;       }
                    2120                             ; SOURCE LINE # 144
0030 0A             2121             INC     R2
0031 EA             2122             MOV     A,R2
0032 B440F8         2123             CJNE    A,#040H,?C0040
                    2124     ; }
                    2125                             ; SOURCE LINE # 145
0035                2126     ?C0043:
0035 22             2127             RET     
                    2128     ; END OF _Set_Colour
                    2129     
                    2130     ; //?3???????????
                    2131     ; void SetPointColour(unsigned int num, unsigned char r, unsigned char g, unsigned char b)
                    2132     
A51 MACRO ASSEMBLER  TEXT1                                                                01/10/2019 19:42:26 PAGE    34

----                2133             RSEG  ?PR?_SetPointColour?TEXT1
0000                2134     _SetPointColour:
                    2135             USING   0
                    2136                             ; SOURCE LINE # 147
0000 900000   F     2137             MOV     DPTR,#num?854
0003 EE             2138             MOV     A,R6
0004 F0             2139             MOVX    @DPTR,A
0005 A3             2140             INC     DPTR
0006 EF             2141             MOV     A,R7
0007 F0             2142             MOVX    @DPTR,A
                    2143     ;---- Variable 'g?856' assigned to Register 'R3' ----
                    2144     ;---- Variable 'r?855' assigned to Register 'R1' ----
0008 A905           2145             MOV     R1,AR5
                    2146     ; {
                    2147                             ; SOURCE LINE # 148
                    2148     ;       unsigned char i;
                    2149     ;       for (i = 0; i<numLEDs; i++)
                    2150                             ; SOURCE LINE # 150
                    2151     ;---- Variable 'i?858' assigned to Register 'R2' ----
000A E4             2152             CLR     A
000B FA             2153             MOV     R2,A
000C                2154     ?C0044:
                    2155     ;       {
                    2156                             ; SOURCE LINE # 151
                    2157     ;               buf_R[num-1] = r;//?o3?
                    2158                             ; SOURCE LINE # 152
000C 900000   F     2159             MOV     DPTR,#num?854
000F A3             2160             INC     DPTR
0010 E0             2161             MOVX    A,@DPTR
0011 FF             2162             MOV     R7,A
0012 2400     F     2163             ADD     A,#LOW (buf_R+0FFFFH)
0014 F582           2164             MOV     DPL,A
0016 E4             2165             CLR     A
0017 3400     F     2166             ADDC    A,#HIGH (buf_R+0FFFFH)
0019 F583           2167             MOV     DPH,A
001B E9             2168             MOV     A,R1
001C F0             2169             MOVX    @DPTR,A
                    2170     ;               buf_G[num-1] = g;
                    2171                             ; SOURCE LINE # 153
001D 7400     F     2172             MOV     A,#LOW (buf_G+0FFFFH)
001F 2F             2173             ADD     A,R7
0020 F582           2174             MOV     DPL,A
0022 E4             2175             CLR     A
0023 3400     F     2176             ADDC    A,#HIGH (buf_G+0FFFFH)
0025 F583           2177             MOV     DPH,A
0027 EB             2178             MOV     A,R3
0028 F0             2179             MOVX    @DPTR,A
                    2180     ;               buf_B[num-1] = b;
                    2181                             ; SOURCE LINE # 154
0029 900000   F     2182             MOV     DPTR,#b?857
002C E0             2183             MOVX    A,@DPTR
002D FE             2184             MOV     R6,A
002E 7400     F     2185             MOV     A,#LOW (buf_B+0FFFFH)
0030 2F             2186             ADD     A,R7
0031 F582           2187             MOV     DPL,A
0033 E4             2188             CLR     A
0034 3400     F     2189             ADDC    A,#HIGH (buf_B+0FFFFH)
0036 F583           2190             MOV     DPH,A
0038 EE             2191             MOV     A,R6
0039 F0             2192             MOVX    @DPTR,A
                    2193     ;       }
                    2194                             ; SOURCE LINE # 155
003A 0A             2195             INC     R2
003B EA             2196             MOV     A,R2
003C B440CD         2197             CJNE    A,#040H,?C0044
003F                2198     ?C0045:
A51 MACRO ASSEMBLER  TEXT1                                                                01/10/2019 19:42:26 PAGE    35

                    2199     ;       for (i = 0; i<numLEDs; i++)
                    2200                             ; SOURCE LINE # 156
003F E4             2201             CLR     A
0040 FA             2202             MOV     R2,A
0041                2203     ?C0047:
                    2204     ;       {
                    2205                             ; SOURCE LINE # 157
                    2206     ;               Send_2811_24bits(buf_G[i], buf_R[i], buf_B[i]);//????
                    2207                             ; SOURCE LINE # 158
0041 120000   F     2208             LCALL   L?0417
                    2209     ;       }
                    2210                             ; SOURCE LINE # 159
0044 0A             2211             INC     R2
0045 EA             2212             MOV     A,R2
0046 B440F8         2213             CJNE    A,#040H,?C0047
                    2214     ; }
                    2215                             ; SOURCE LINE # 160
0049                2216     ?C0050:
0049 22             2217             RET     
                    2218     ; END OF _SetPointColour
                    2219     
                    2220     ; 
                    2221     ; //24
                    2222     ; 
                    2223     ; void SetPixelColor(unsigned char num,unsigned long c)
                    2224     
----                2225             RSEG  ?PR?_SetPixelColor?TEXT1
0000                2226     _SetPixelColor:
                    2227             USING   0
                    2228                             ; SOURCE LINE # 164
                    2229     ;---- Variable 'num?959' assigned to Register 'R3' ----
0000 AB07           2230             MOV     R3,AR7
                    2231     ; 
                    2232     ; {
                    2233                             ; SOURCE LINE # 166
                    2234     ; 
                    2235     ;         unsigned char i;
                    2236     ; 
                    2237     ;               for(i=0;i<numLEDs;i++)
                    2238                             ; SOURCE LINE # 170
                    2239     ;---- Variable 'i?961' assigned to Register 'R2' ----
0002 E4             2240             CLR     A
0003 FA             2241             MOV     R2,A
0004                2242     ?C0051:
                    2243     ; 
                    2244     ;         {
                    2245                             ; SOURCE LINE # 172
                    2246     ; 
                    2247     ;                         buf_R[num] = (unsigned char)(c>>16);
                    2248                             ; SOURCE LINE # 174
0004 900000   F     2249             MOV     DPTR,#c?960
0007 E0             2250             MOVX    A,@DPTR
0008 FC             2251             MOV     R4,A
0009 A3             2252             INC     DPTR
000A E0             2253             MOVX    A,@DPTR
000B FD             2254             MOV     R5,A
000C A3             2255             INC     DPTR
000D E0             2256             MOVX    A,@DPTR
000E FE             2257             MOV     R6,A
000F A3             2258             INC     DPTR
0010 E0             2259             MOVX    A,@DPTR
0011 FF             2260             MOV     R7,A
0012 7810           2261             MOV     R0,#010H
0014 120000   F     2262             LCALL   ?C?ULSHR
0017 7400     F     2263             MOV     A,#LOW (buf_R)
0019 2B             2264             ADD     A,R3
A51 MACRO ASSEMBLER  TEXT1                                                                01/10/2019 19:42:26 PAGE    36

001A F582           2265             MOV     DPL,A
001C E4             2266             CLR     A
001D 3400     F     2267             ADDC    A,#HIGH (buf_R)
001F F583           2268             MOV     DPH,A
0021 EF             2269             MOV     A,R7
0022 F0             2270             MOVX    @DPTR,A
                    2271     ; 
                    2272     ;                         buf_G[num] = (unsigned char)(c>>8);
                    2273                             ; SOURCE LINE # 176
0023 900000   F     2274             MOV     DPTR,#c?960
0026 E0             2275             MOVX    A,@DPTR
0027 FC             2276             MOV     R4,A
0028 A3             2277             INC     DPTR
0029 E0             2278             MOVX    A,@DPTR
002A FD             2279             MOV     R5,A
002B A3             2280             INC     DPTR
002C E0             2281             MOVX    A,@DPTR
002D FE             2282             MOV     R6,A
002E A3             2283             INC     DPTR
002F E0             2284             MOVX    A,@DPTR
0030 FF             2285             MOV     R7,A
0031 7808           2286             MOV     R0,#08H
0033 120000   F     2287             LCALL   ?C?ULSHR
0036 7400     F     2288             MOV     A,#LOW (buf_G)
0038 2B             2289             ADD     A,R3
0039 F582           2290             MOV     DPL,A
003B E4             2291             CLR     A
003C 3400     F     2292             ADDC    A,#HIGH (buf_G)
003E F583           2293             MOV     DPH,A
0040 EF             2294             MOV     A,R7
0041 F0             2295             MOVX    @DPTR,A
                    2296     ; 
                    2297     ;                         buf_B[num] = (unsigned char)(c);
                    2298                             ; SOURCE LINE # 178
0042 900000   F     2299             MOV     DPTR,#c?960
0045 A3             2300             INC     DPTR
0046 A3             2301             INC     DPTR
0047 A3             2302             INC     DPTR
0048 E0             2303             MOVX    A,@DPTR
0049 FF             2304             MOV     R7,A
004A 7400     F     2305             MOV     A,#LOW (buf_B)
004C 2B             2306             ADD     A,R3
004D F582           2307             MOV     DPL,A
004F E4             2308             CLR     A
0050 3400     F     2309             ADDC    A,#HIGH (buf_B)
0052 F583           2310             MOV     DPH,A
0054 EF             2311             MOV     A,R7
0055 F0             2312             MOVX    @DPTR,A
                    2313     ; 
                    2314     ;               }
                    2315                             ; SOURCE LINE # 180
0056 0A             2316             INC     R2
0057 EA             2317             MOV     A,R2
0058 B440A9         2318             CJNE    A,#040H,?C0051
005B                2319     ?C0052:
                    2320     ; 
                    2321     ;               for(i=0;i<numLEDs;i++)
                    2322                             ; SOURCE LINE # 182
005B E4             2323             CLR     A
005C FA             2324             MOV     R2,A
005D                2325     ?C0054:
                    2326     ; 
                    2327     ;               {
                    2328                             ; SOURCE LINE # 184
                    2329     ; 
                    2330     ;                       Send_2811_24bits(buf_G[i],buf_R[i],buf_B[i]);
A51 MACRO ASSEMBLER  TEXT1                                                                01/10/2019 19:42:26 PAGE    37

                    2331                             ; SOURCE LINE # 186
005D 120000   F     2332             LCALL   L?0418
                    2333     ; 
                    2334     ;               }
                    2335                             ; SOURCE LINE # 188
0060 0A             2336             INC     R2
0061 EA             2337             MOV     A,R2
0062 B440F8         2338             CJNE    A,#040H,?C0054
                    2339     ; 
                    2340     ; }
                    2341                             ; SOURCE LINE # 190
0065                2342     ?C0057:
0065 22             2343             RET     
                    2344     ; END OF _SetPixelColor
                    2345     
                    2346     ; //24
                    2347     ; 
                    2348     ; void SentPixelColor(unsigned char num,unsigned long c)
                    2349     
----                2350             RSEG  ?PR?_SentPixelColor?TEXT1
0000                2351     _SentPixelColor:
                    2352             USING   0
                    2353                             ; SOURCE LINE # 193
                    2354     ;---- Variable 'num?1062' assigned to Register 'R3' ----
0000 AB07           2355             MOV     R3,AR7
                    2356     ; 
                    2357     ; {
                    2358                             ; SOURCE LINE # 195
                    2359     ; 
                    2360     ;         unsigned char i;
                    2361     ; 
                    2362     ;               for(i=0;i<numLEDs;i++)
                    2363                             ; SOURCE LINE # 199
                    2364     ;---- Variable 'i?1064' assigned to Register 'R2' ----
0002 E4             2365             CLR     A
0003 FA             2366             MOV     R2,A
0004                2367     ?C0058:
                    2368     ; 
                    2369     ;         {
                    2370                             ; SOURCE LINE # 201
                    2371     ; 
                    2372     ;                         buf_R[num-1] = (unsigned char)(c>>16);
                    2373                             ; SOURCE LINE # 203
0004 900000   F     2374             MOV     DPTR,#c?1063
0007 E0             2375             MOVX    A,@DPTR
0008 FC             2376             MOV     R4,A
0009 A3             2377             INC     DPTR
000A E0             2378             MOVX    A,@DPTR
000B FD             2379             MOV     R5,A
000C A3             2380             INC     DPTR
000D E0             2381             MOVX    A,@DPTR
000E FE             2382             MOV     R6,A
000F A3             2383             INC     DPTR
0010 E0             2384             MOVX    A,@DPTR
0011 FF             2385             MOV     R7,A
0012 7810           2386             MOV     R0,#010H
0014 120000   F     2387             LCALL   ?C?ULSHR
0017 7400     F     2388             MOV     A,#LOW (buf_R+0FFFFH)
0019 2B             2389             ADD     A,R3
001A F582           2390             MOV     DPL,A
001C E4             2391             CLR     A
001D 3400     F     2392             ADDC    A,#HIGH (buf_R+0FFFFH)
001F F583           2393             MOV     DPH,A
0021 EF             2394             MOV     A,R7
0022 F0             2395             MOVX    @DPTR,A
                    2396     ; 
A51 MACRO ASSEMBLER  TEXT1                                                                01/10/2019 19:42:26 PAGE    38

                    2397     ;                         buf_G[num-1] = (unsigned char)(c>>8);
                    2398                             ; SOURCE LINE # 205
0023 900000   F     2399             MOV     DPTR,#c?1063
0026 E0             2400             MOVX    A,@DPTR
0027 FC             2401             MOV     R4,A
0028 A3             2402             INC     DPTR
0029 E0             2403             MOVX    A,@DPTR
002A FD             2404             MOV     R5,A
002B A3             2405             INC     DPTR
002C E0             2406             MOVX    A,@DPTR
002D FE             2407             MOV     R6,A
002E A3             2408             INC     DPTR
002F E0             2409             MOVX    A,@DPTR
0030 FF             2410             MOV     R7,A
0031 7808           2411             MOV     R0,#08H
0033 120000   F     2412             LCALL   ?C?ULSHR
0036 7400     F     2413             MOV     A,#LOW (buf_G+0FFFFH)
0038 2B             2414             ADD     A,R3
0039 F582           2415             MOV     DPL,A
003B E4             2416             CLR     A
003C 3400     F     2417             ADDC    A,#HIGH (buf_G+0FFFFH)
003E F583           2418             MOV     DPH,A
0040 EF             2419             MOV     A,R7
0041 F0             2420             MOVX    @DPTR,A
                    2421     ; 
                    2422     ;                         buf_B[num-1] = (unsigned char)(c);
                    2423                             ; SOURCE LINE # 207
0042 900000   F     2424             MOV     DPTR,#c?1063
0045 A3             2425             INC     DPTR
0046 A3             2426             INC     DPTR
0047 A3             2427             INC     DPTR
0048 E0             2428             MOVX    A,@DPTR
0049 FF             2429             MOV     R7,A
004A 7400     F     2430             MOV     A,#LOW (buf_B+0FFFFH)
004C 2B             2431             ADD     A,R3
004D F582           2432             MOV     DPL,A
004F E4             2433             CLR     A
0050 3400     F     2434             ADDC    A,#HIGH (buf_B+0FFFFH)
0052 F583           2435             MOV     DPH,A
0054 EF             2436             MOV     A,R7
0055 F0             2437             MOVX    @DPTR,A
                    2438     ; 
                    2439     ;               }
                    2440                             ; SOURCE LINE # 209
0056 0A             2441             INC     R2
0057 EA             2442             MOV     A,R2
0058 B440A9         2443             CJNE    A,#040H,?C0058
005B                2444     ?C0059:
                    2445     ; 
                    2446     ;               for(i=0;i<numLEDs;i++)
                    2447                             ; SOURCE LINE # 211
005B E4             2448             CLR     A
005C FA             2449             MOV     R2,A
005D                2450     ?C0061:
                    2451     ; 
                    2452     ;               {
                    2453                             ; SOURCE LINE # 213
                    2454     ; 
                    2455     ;                       Send_2811_24bits(buf_G[i],buf_R[i],buf_B[i]);
                    2456                             ; SOURCE LINE # 215
005D 120000   F     2457             LCALL   L?0418
                    2458     ; 
                    2459     ;               }
                    2460                             ; SOURCE LINE # 217
0060 0A             2461             INC     R2
0061 EA             2462             MOV     A,R2
A51 MACRO ASSEMBLER  TEXT1                                                                01/10/2019 19:42:26 PAGE    39

0062 B440F8         2463             CJNE    A,#040H,?C0061
                    2464     ; 
                    2465     ; }
                    2466                             ; SOURCE LINE # 219
0065                2467     ?C0064:
0065 22             2468             RET     
                    2469     ; END OF _SentPixelColor
                    2470     
                    2471     ; 
                    2472     ;  
                    2473     ; 
                    2474     ; //
                    2475     ; 
                    2476     ; void PixelUpdate()
                    2477     
----                2478             RSEG  ?PR?PixelUpdate?TEXT1
0000                2479     PixelUpdate:
                    2480             USING   0
                    2481                             ; SOURCE LINE # 225
                    2482     ; 
                    2483     ; {
                    2484                             ; SOURCE LINE # 227
                    2485     ; 
                    2486     ;       RGB_Rst();
                    2487                             ; SOURCE LINE # 229
0000 020000   F     2488             LJMP    RGB_Rst
                    2489     ; END OF PixelUpdate
                    2490     
                    2491     ; 
                    2492     ; }
                    2493     ; 
                    2494     ; //
                    2495     ; 
                    2496     ; unsigned long Color(unsigned char r, unsigned char g, unsigned char b)
                    2497     
----                2498             RSEG  ?PR?_Color?TEXT1
0000                2499     L?0421:
                    2500             USING   0
0000 FF             2501             MOV     R7,A
0001 7C00           2502             MOV     R4,#00H
0003 7D05           2503             MOV     R5,#05H
0005 120000   F     2504             LCALL   ?C?SIDIV
0008 900000   F     2505             MOV     DPTR,#i?2494
000B A3             2506             INC     DPTR
000C E0             2507             MOVX    A,@DPTR
000D 2F             2508             ADD     A,R7
000E FF             2509             MOV     R7,A
000F FB             2510             MOV     R3,A
0010 E4             2511             CLR     A
0011 FD             2512             MOV     R5,A
0012                2513     _Color:
                    2514             USING   0
                    2515                             ; SOURCE LINE # 235
0012 900000   F     2516             MOV     DPTR,#r?1265
0015 EF             2517             MOV     A,R7
0016 F0             2518             MOVX    @DPTR,A
0017 A3             2519             INC     DPTR
0018 EB             2520             MOV     A,R3
0019 F0             2521             MOVX    @DPTR,A
                    2522     ;---- Variable 'g?1266' assigned to Register 'R5' ----
                    2523     ; 
                    2524     ; {
                    2525                             ; SOURCE LINE # 237
                    2526     ; 
                    2527     ;   return ((unsigned long)r << 16) | ((unsigned long)g <<  8) | b;
                    2528                             ; SOURCE LINE # 239
A51 MACRO ASSEMBLER  TEXT1                                                                01/10/2019 19:42:26 PAGE    40

001A AF05           2529             MOV     R7,AR5
001C E4             2530             CLR     A
001D FC             2531             MOV     R4,A
001E FD             2532             MOV     R5,A
001F FE             2533             MOV     R6,A
0020 7808           2534             MOV     R0,#08H
0022 120000   F     2535             LCALL   ?C?LSHL
0025 C004           2536             PUSH    AR4
0027 C005           2537             PUSH    AR5
0029 C006           2538             PUSH    AR6
002B C007           2539             PUSH    AR7
002D 900000   F     2540             MOV     DPTR,#r?1265
0030 E0             2541             MOVX    A,@DPTR
0031 FF             2542             MOV     R7,A
0032 E4             2543             CLR     A
0033 FC             2544             MOV     R4,A
0034 FD             2545             MOV     R5,A
0035 FE             2546             MOV     R6,A
0036 7810           2547             MOV     R0,#010H
0038 120000   F     2548             LCALL   ?C?LSHL
003B D003           2549             POP     AR3
003D D002           2550             POP     AR2
003F D001           2551             POP     AR1
0041 D000           2552             POP     AR0
0043 EF             2553             MOV     A,R7
0044 4B             2554             ORL     A,R3
0045 FB             2555             MOV     R3,A
0046 EE             2556             MOV     A,R6
0047 4A             2557             ORL     A,R2
0048 FA             2558             MOV     R2,A
0049 ED             2559             MOV     A,R5
004A 49             2560             ORL     A,R1
004B F9             2561             MOV     R1,A
004C EC             2562             MOV     A,R4
004D 48             2563             ORL     A,R0
004E F8             2564             MOV     R0,A
004F A3             2565             INC     DPTR
0050 E0             2566             MOVX    A,@DPTR
0051 FF             2567             MOV     R7,A
0052 EB             2568             MOV     A,R3
0053 4F             2569             ORL     A,R7
0054 FF             2570             MOV     R7,A
0055 EA             2571             MOV     A,R2
0056 FE             2572             MOV     R6,A
0057 E9             2573             MOV     A,R1
0058 FD             2574             MOV     R5,A
0059 E8             2575             MOV     A,R0
005A FC             2576             MOV     R4,A
                    2577     ; 
                    2578     ; }
                    2579                             ; SOURCE LINE # 241
005B                2580     ?C0066:
005B 22             2581             RET     
                    2582     ; END OF _Color
                    2583     
                    2584     ; 
                    2585     ;  
                    2586     ; 
                    2587     ; //
                    2588     ; 
                    2589     ; unsigned long Wheel(unsigned char WheelPos)
                    2590     
----                2591             RSEG  ?PR?_Wheel?TEXT1
0000                2592     _Wheel:
                    2593             USING   0
                    2594                             ; SOURCE LINE # 247
A51 MACRO ASSEMBLER  TEXT1                                                                01/10/2019 19:42:26 PAGE    41

0000 900000   F     2595             MOV     DPTR,#WheelPos?1368
0003 EF             2596             MOV     A,R7
0004 F0             2597             MOVX    @DPTR,A
                    2598     ; 
                    2599     ; {
                    2600                             ; SOURCE LINE # 249
                    2601     ; 
                    2602     ;   WheelPos = 255 - WheelPos;
                    2603                             ; SOURCE LINE # 251
0005 C3             2604             CLR     C
0006 74FF           2605             MOV     A,#0FFH
0008 9F             2606             SUBB    A,R7
0009 F0             2607             MOVX    @DPTR,A
                    2608     ; 
                    2609     ;   if(WheelPos < 85) 
                    2610                             ; SOURCE LINE # 253
000A C3             2611             CLR     C
000B 9455           2612             SUBB    A,#055H
000D 500F           2613             JNC     ?C0067
                    2614     ; 
                    2615     ;       {
                    2616                             ; SOURCE LINE # 255
                    2617     ; 
                    2618     ;     return Color(255 - WheelPos * 3, 0, WheelPos * 3);
                    2619                             ; SOURCE LINE # 257
000F E0             2620             MOVX    A,@DPTR
0010 75F003         2621             MOV     B,#03H
0013 A4             2622             MUL     AB
0014 FB             2623             MOV     R3,A
0015 C3             2624             CLR     C
0016 74FF           2625             MOV     A,#0FFH
0018 9B             2626             SUBB    A,R3
0019 FF             2627             MOV     R7,A
001A E4             2628             CLR     A
001B FD             2629             MOV     R5,A
001C 8030           2630             SJMP    ?C0354
                    2631     ; 
                    2632     ;   }
                    2633                             ; SOURCE LINE # 259
001E                2634     ?C0067:
                    2635     ; 
                    2636     ;   if(WheelPos < 170) {
                    2637                             ; SOURCE LINE # 261
001E 900000   F     2638             MOV     DPTR,#WheelPos?1368
0021 E0             2639             MOVX    A,@DPTR
0022 C3             2640             CLR     C
0023 94AA           2641             SUBB    A,#0AAH
0025 5013           2642             JNC     ?C0069
                    2643     ; 
                    2644     ;     WheelPos -= 85;
                    2645                             ; SOURCE LINE # 263
0027 E0             2646             MOVX    A,@DPTR
0028 24AB           2647             ADD     A,#0ABH
002A F0             2648             MOVX    @DPTR,A
                    2649     ; 
                    2650     ;     return Color(0, WheelPos * 3, 255 - WheelPos * 3);
                    2651                             ; SOURCE LINE # 265
002B E0             2652             MOVX    A,@DPTR
002C 75F003         2653             MOV     B,#03H
002F A4             2654             MUL     AB
0030 FD             2655             MOV     R5,A
0031 C3             2656             CLR     C
0032 74FF           2657             MOV     A,#0FFH
0034 9D             2658             SUBB    A,R5
0035 FB             2659             MOV     R3,A
0036 E4             2660             CLR     A
A51 MACRO ASSEMBLER  TEXT1                                                                01/10/2019 19:42:26 PAGE    42

0037 FF             2661             MOV     R7,A
0038                2662     ?C0353:
0038 8014           2663             SJMP    ?C0354
                    2664     ; 
                    2665     ;   }
                    2666                             ; SOURCE LINE # 267
003A                2667     ?C0069:
                    2668     ; 
                    2669     ;   WheelPos -= 170;
                    2670                             ; SOURCE LINE # 269
003A 900000   F     2671             MOV     DPTR,#WheelPos?1368
003D E0             2672             MOVX    A,@DPTR
003E 2456           2673             ADD     A,#056H
0040 F0             2674             MOVX    @DPTR,A
                    2675     ; 
                    2676     ;   return Color(WheelPos * 3, 255 - WheelPos * 3, 0);
                    2677                             ; SOURCE LINE # 271
0041 E0             2678             MOVX    A,@DPTR
0042 75F003         2679             MOV     B,#03H
0045 A4             2680             MUL     AB
0046 FF             2681             MOV     R7,A
0047 C3             2682             CLR     C
0048 74FF           2683             MOV     A,#0FFH
004A 9F             2684             SUBB    A,R7
004B FD             2685             MOV     R5,A
004C E4             2686             CLR     A
004D FB             2687             MOV     R3,A
004E                2688     ?C0354:
004E 120000   F     2689             LCALL   _Color
                    2690     ; 
                    2691     ; }
                    2692                             ; SOURCE LINE # 273
0051                2693     ?C0068:
0051 22             2694             RET     
                    2695     ; END OF _Wheel
                    2696     
                    2697     ; 
                    2698     ;  
                    2699     ; 
                    2700     ; //
                    2701     ; 
                    2702     ; void rainbow(unsigned int wait)
                    2703     
----                2704             RSEG  ?PR?_rainbow?TEXT1
0000                2705     _rainbow:
                    2706             USING   0
                    2707                             ; SOURCE LINE # 279
0000 900000   F     2708             MOV     DPTR,#wait?1469
0003 EE             2709             MOV     A,R6
0004 F0             2710             MOVX    @DPTR,A
0005 A3             2711             INC     DPTR
0006 EF             2712             MOV     A,R7
0007 F0             2713             MOVX    @DPTR,A
                    2714     ; 
                    2715     ; {
                    2716                             ; SOURCE LINE # 281
                    2717     ; 
                    2718     ;   unsigned int i, j;
                    2719     ; 
                    2720     ;  
                    2721     ; 
                    2722     ;   for(j=0; j<2; j++) 
                    2723                             ; SOURCE LINE # 287
0008 E4             2724             CLR     A
0009 900000   F     2725             MOV     DPTR,#j?1471
000C F0             2726             MOVX    @DPTR,A
A51 MACRO ASSEMBLER  TEXT1                                                                01/10/2019 19:42:26 PAGE    43

000D A3             2727             INC     DPTR
000E F0             2728             MOVX    @DPTR,A
000F                2729     ?C0070:
                    2730     ; 
                    2731     ;       {
                    2732                             ; SOURCE LINE # 289
                    2733     ; 
                    2734     ;     for(i=0; i<numLEDs; i++)
                    2735                             ; SOURCE LINE # 291
000F E4             2736             CLR     A
0010 900000   F     2737             MOV     DPTR,#i?1470
0013 F0             2738             MOVX    @DPTR,A
0014 A3             2739             INC     DPTR
0015 F0             2740             MOVX    @DPTR,A
0016                2741     ?C0073:
0016 900000   F     2742             MOV     DPTR,#i?1470
0019 E0             2743             MOVX    A,@DPTR
001A FE             2744             MOV     R6,A
001B A3             2745             INC     DPTR
001C E0             2746             MOVX    A,@DPTR
001D FF             2747             MOV     R7,A
001E C3             2748             CLR     C
001F 9440           2749             SUBB    A,#040H
0021 EE             2750             MOV     A,R6
0022 9400           2751             SUBB    A,#00H
0024 5029           2752             JNC     ?C0074
                    2753     ; 
                    2754     ;               {
                    2755                             ; SOURCE LINE # 293
                    2756     ; 
                    2757     ;       SetPixelColor(i, Wheel((i+j) & 255));
                    2758                             ; SOURCE LINE # 295
0026 A3             2759             INC     DPTR
0027 A3             2760             INC     DPTR
0028 E0             2761             MOVX    A,@DPTR
0029 FD             2762             MOV     R5,A
002A EF             2763             MOV     A,R7
002B 2D             2764             ADD     A,R5
002C FF             2765             MOV     R7,A
002D 120000   F     2766             LCALL   _Wheel
0030 900000   F     2767             MOV     DPTR,#?_SetPixelColor?BYTE+01H
0033 120000   F     2768             LCALL   ?C?LSTXDATA
0036 900000   F     2769             MOV     DPTR,#i?1470
0039 A3             2770             INC     DPTR
003A E0             2771             MOVX    A,@DPTR
003B FF             2772             MOV     R7,A
003C 120000   F     2773             LCALL   _SetPixelColor
                    2774     ; 
                    2775     ;     }
                    2776                             ; SOURCE LINE # 297
003F 900000   F     2777             MOV     DPTR,#i?1470+01H
0042 E0             2778             MOVX    A,@DPTR
0043 04             2779             INC     A
0044 F0             2780             MOVX    @DPTR,A
0045 70CF           2781             JNZ     ?C0073
0047 900000   F     2782             MOV     DPTR,#i?1470
004A E0             2783             MOVX    A,@DPTR
004B 04             2784             INC     A
004C F0             2785             MOVX    @DPTR,A
004D                2786     ?C0313:
004D 80C7           2787             SJMP    ?C0073
004F                2788     ?C0074:
                    2789     ; 
                    2790     ;               PixelUpdate();
                    2791                             ; SOURCE LINE # 299
004F 120000   F     2792             LCALL   PixelUpdate
A51 MACRO ASSEMBLER  TEXT1                                                                01/10/2019 19:42:26 PAGE    44

                    2793     ; 
                    2794     ;     HAL_Delay(wait);
                    2795                             ; SOURCE LINE # 301
0052 900000   F     2796             MOV     DPTR,#wait?1469
0055 120000   F     2797             LCALL   L?0422
                    2798     ; 
                    2799     ;   }
                    2800                             ; SOURCE LINE # 303
0058 900000   F     2801             MOV     DPTR,#j?1471+01H
005B E0             2802             MOVX    A,@DPTR
005C 04             2803             INC     A
005D F0             2804             MOVX    @DPTR,A
005E 7006           2805             JNZ     ?C0314
0060 900000   F     2806             MOV     DPTR,#j?1471
0063 E0             2807             MOVX    A,@DPTR
0064 04             2808             INC     A
0065 F0             2809             MOVX    @DPTR,A
0066                2810     ?C0314:
0066 C3             2811             CLR     C
0067 900000   F     2812             MOV     DPTR,#j?1471+01H
006A E0             2813             MOVX    A,@DPTR
006B 9402           2814             SUBB    A,#02H
006D 900000   F     2815             MOV     DPTR,#j?1471
0070 E0             2816             MOVX    A,@DPTR
0071 9400           2817             SUBB    A,#00H
0073 409A           2818             JC      ?C0070
0075                2819     ?C0071:
                    2820     ;   ReSet();
                    2821                             ; SOURCE LINE # 304
0075 020000   F     2822             LJMP    ReSet
                    2823     ; END OF _rainbow
                    2824     
                    2825     ;   
                    2826     ; }
                    2827     ; 
                    2828     ;  
                    2829     ; 
                    2830     ; //
                    2831     ; 
                    2832     ; void rainbowCycle(unsigned int wait) 
                    2833     
----                2834             RSEG  ?PR?_rainbowCycle?TEXT1
0000                2835     _rainbowCycle:
                    2836             USING   0
                    2837                             ; SOURCE LINE # 312
0000 900000   F     2838             MOV     DPTR,#wait?1572
0003 EE             2839             MOV     A,R6
0004 F0             2840             MOVX    @DPTR,A
0005 A3             2841             INC     DPTR
0006 EF             2842             MOV     A,R7
0007 F0             2843             MOVX    @DPTR,A
                    2844     ; 
                    2845     ; {
                    2846                             ; SOURCE LINE # 314
                    2847     ; 
                    2848     ;   unsigned int i, j;
                    2849     ; 
                    2850     ;  
                    2851     ; 
                    2852     ;   for(j=0;j<256*5;j++) 
                    2853                             ; SOURCE LINE # 320
0008 E4             2854             CLR     A
0009 900000   F     2855             MOV     DPTR,#j?1574
000C F0             2856             MOVX    @DPTR,A
000D A3             2857             INC     DPTR
000E F0             2858             MOVX    @DPTR,A
A51 MACRO ASSEMBLER  TEXT1                                                                01/10/2019 19:42:26 PAGE    45

000F                2859     ?C0077:
                    2860     ; 
                    2861     ;       { // 5 cycles of all colors on wheel  5
                    2862                             ; SOURCE LINE # 322
                    2863     ; 
                    2864     ;     for(i=0;i<numLEDs;i++) 
                    2865                             ; SOURCE LINE # 324
000F E4             2866             CLR     A
0010 900000   F     2867             MOV     DPTR,#i?1573
0013 F0             2868             MOVX    @DPTR,A
0014 A3             2869             INC     DPTR
0015 F0             2870             MOVX    @DPTR,A
0016                2871     ?C0080:
0016 900000   F     2872             MOV     DPTR,#i?1573
0019 E0             2873             MOVX    A,@DPTR
001A FE             2874             MOV     R6,A
001B A3             2875             INC     DPTR
001C E0             2876             MOVX    A,@DPTR
001D FF             2877             MOV     R7,A
001E C3             2878             CLR     C
001F 9440           2879             SUBB    A,#040H
0021 EE             2880             MOV     A,R6
0022 9400           2881             SUBB    A,#00H
0024 5036           2882             JNC     ?C0081
                    2883     ; 
                    2884     ;        {
                    2885                             ; SOURCE LINE # 326
                    2886     ; 
                    2887     ;      SetPixelColor(i, Wheel(((i * 256 / numLEDs) + j) & 255));
                    2888                             ; SOURCE LINE # 328
0026 EF             2889             MOV     A,R7
0027 FE             2890             MOV     R6,A
0028 E4             2891             CLR     A
0029 7806           2892             MOV     R0,#06H
002B                2893     ?C0315:
002B CE             2894             XCH     A,R6
002C C3             2895             CLR     C
002D 13             2896             RRC     A
002E CE             2897             XCH     A,R6
002F 13             2898             RRC     A
0030 D8F9           2899             DJNZ    R0,?C0315
0032 FF             2900             MOV     R7,A
0033 900000   F     2901             MOV     DPTR,#j?1574
0036 A3             2902             INC     DPTR
0037 E0             2903             MOVX    A,@DPTR
0038 2F             2904             ADD     A,R7
0039 FF             2905             MOV     R7,A
003A 120000   F     2906             LCALL   _Wheel
003D 900000   F     2907             MOV     DPTR,#?_SetPixelColor?BYTE+01H
0040 120000   F     2908             LCALL   ?C?LSTXDATA
0043 900000   F     2909             MOV     DPTR,#i?1573
0046 A3             2910             INC     DPTR
0047 E0             2911             MOVX    A,@DPTR
0048 FF             2912             MOV     R7,A
0049 120000   F     2913             LCALL   _SetPixelColor
                    2914     ; 
                    2915     ;     }
                    2916                             ; SOURCE LINE # 330
004C 900000   F     2917             MOV     DPTR,#i?1573+01H
004F E0             2918             MOVX    A,@DPTR
0050 04             2919             INC     A
0051 F0             2920             MOVX    @DPTR,A
0052 70C2           2921             JNZ     ?C0080
0054 900000   F     2922             MOV     DPTR,#i?1573
0057 E0             2923             MOVX    A,@DPTR
0058 04             2924             INC     A
A51 MACRO ASSEMBLER  TEXT1                                                                01/10/2019 19:42:26 PAGE    46

0059 F0             2925             MOVX    @DPTR,A
005A                2926     ?C0316:
005A 80BA           2927             SJMP    ?C0080
005C                2928     ?C0081:
                    2929     ; 
                    2930     ;         PixelUpdate();
                    2931                             ; SOURCE LINE # 332
005C 120000   F     2932             LCALL   PixelUpdate
                    2933     ; 
                    2934     ;     HAL_Delay (wait);
                    2935                             ; SOURCE LINE # 334
005F 900000   F     2936             MOV     DPTR,#wait?1572
0062 120000   F     2937             LCALL   L?0422
                    2938     ; 
                    2939     ;   }
                    2940                             ; SOURCE LINE # 336
0065 900000   F     2941             MOV     DPTR,#j?1574+01H
0068 E0             2942             MOVX    A,@DPTR
0069 04             2943             INC     A
006A F0             2944             MOVX    @DPTR,A
006B 7006           2945             JNZ     ?C0317
006D 900000   F     2946             MOV     DPTR,#j?1574
0070 E0             2947             MOVX    A,@DPTR
0071 04             2948             INC     A
0072 F0             2949             MOVX    @DPTR,A
0073                2950     ?C0317:
0073 C3             2951             CLR     C
0074 900000   F     2952             MOV     DPTR,#j?1574
0077 E0             2953             MOVX    A,@DPTR
0078 9405           2954             SUBB    A,#05H
007A 4093           2955             JC      ?C0077
                    2956     ; 
                    2957     ; }
                    2958                             ; SOURCE LINE # 338
007C                2959     ?C0083:
007C 22             2960             RET     
                    2961     ; END OF _rainbowCycle
                    2962     
                    2963     ; 
                    2964     ;  
                    2965     ; 
                    2966     ; //Theatre-style crawling lights.
                    2967     ; 
                    2968     ; void theaterChase(unsigned long c, unsigned int wait) 
                    2969     
----                2970             RSEG  ?PR?_theaterChase?TEXT1
0000                2971     L?0419:
                    2972             USING   0
0000                2973     L?0420:
0000 900000   F     2974             MOV     DPTR,#?_theaterChase?BYTE+04H
0003 E4             2975             CLR     A
0004 F0             2976             MOVX    @DPTR,A
0005 A3             2977             INC     DPTR
0006 7450           2978             MOV     A,#050H
0008 F0             2979             MOVX    @DPTR,A
0009                2980     _theaterChase:
                    2981             USING   0
                    2982                             ; SOURCE LINE # 344
0009 900000   F     2983             MOV     DPTR,#c?1675
000C 120000   F     2984             LCALL   ?C?LSTXDATA
                    2985     ; 
                    2986     ; {
                    2987                             ; SOURCE LINE # 346
                    2988     ; 
                    2989     ;       int j,q;
                    2990     ; 
A51 MACRO ASSEMBLER  TEXT1                                                                01/10/2019 19:42:26 PAGE    47

                    2991     ;       unsigned int i;
                    2992     ; 
                    2993     ;   for (j=0; j<1; j++) 
                    2994                             ; SOURCE LINE # 352
000F E4             2995             CLR     A
0010 900000   F     2996             MOV     DPTR,#j?1677
0013 F0             2997             MOVX    @DPTR,A
0014 A3             2998             INC     DPTR
0015 F0             2999             MOVX    @DPTR,A
0016                3000     ?C0084:
                    3001     ; 
                    3002     ;       {  //do 10 cycles of chasing  10
                    3003                             ; SOURCE LINE # 354
                    3004     ; 
                    3005     ;     for (q=0; q < 3; q++) 
                    3006                             ; SOURCE LINE # 356
0016 E4             3007             CLR     A
0017 900000   F     3008             MOV     DPTR,#q?1678
001A F0             3009             MOVX    @DPTR,A
001B A3             3010             INC     DPTR
001C F0             3011             MOVX    @DPTR,A
001D                3012     ?C0087:
                    3013     ; 
                    3014     ;               {
                    3015                             ; SOURCE LINE # 358
                    3016     ; 
                    3017     ;       for (i=0; i<numLEDs; i=i+3)
                    3018                             ; SOURCE LINE # 360
001D E4             3019             CLR     A
001E 900000   F     3020             MOV     DPTR,#i?1679
0021 F0             3021             MOVX    @DPTR,A
0022 A3             3022             INC     DPTR
0023 F0             3023             MOVX    @DPTR,A
0024                3024     ?C0090:
0024 900000   F     3025             MOV     DPTR,#i?1679
0027 E0             3026             MOVX    A,@DPTR
0028 FE             3027             MOV     R6,A
0029 A3             3028             INC     DPTR
002A E0             3029             MOVX    A,@DPTR
002B FF             3030             MOV     R7,A
002C C3             3031             CLR     C
002D 9440           3032             SUBB    A,#040H
002F EE             3033             MOV     A,R6
0030 9400           3034             SUBB    A,#00H
0032 5034           3035             JNC     ?C0091
                    3036     ; 
                    3037     ;                       {
                    3038                             ; SOURCE LINE # 362
                    3039     ; 
                    3040     ;         SetPixelColor(i+q, c);    //turn every third pixel on  
                    3041                             ; SOURCE LINE # 364
0034 900000   F     3042             MOV     DPTR,#q?1678
0037 A3             3043             INC     DPTR
0038 E0             3044             MOVX    A,@DPTR
0039 FD             3045             MOV     R5,A
003A EF             3046             MOV     A,R7
003B 2D             3047             ADD     A,R5
003C FF             3048             MOV     R7,A
003D C007           3049             PUSH    AR7
003F 900000   F     3050             MOV     DPTR,#c?1675
0042 E0             3051             MOVX    A,@DPTR
0043 FC             3052             MOV     R4,A
0044 A3             3053             INC     DPTR
0045 E0             3054             MOVX    A,@DPTR
0046 FD             3055             MOV     R5,A
0047 A3             3056             INC     DPTR
A51 MACRO ASSEMBLER  TEXT1                                                                01/10/2019 19:42:26 PAGE    48

0048 E0             3057             MOVX    A,@DPTR
0049 FE             3058             MOV     R6,A
004A A3             3059             INC     DPTR
004B E0             3060             MOVX    A,@DPTR
004C FF             3061             MOV     R7,A
004D 900000   F     3062             MOV     DPTR,#?_SetPixelColor?BYTE+01H
0050 120000   F     3063             LCALL   ?C?LSTXDATA
0053 D007           3064             POP     AR7
0055 120000   F     3065             LCALL   _SetPixelColor
                    3066     ; 
                    3067     ;       }
                    3068                             ; SOURCE LINE # 366
0058 900000   F     3069             MOV     DPTR,#i?1679+01H
005B E0             3070             MOVX    A,@DPTR
005C 2403           3071             ADD     A,#03H
005E F0             3072             MOVX    @DPTR,A
005F 900000   F     3073             MOV     DPTR,#i?1679
0062 E0             3074             MOVX    A,@DPTR
0063 3400           3075             ADDC    A,#00H
0065 F0             3076             MOVX    @DPTR,A
0066 80BC           3077             SJMP    ?C0090
0068                3078     ?C0091:
                    3079     ; 
                    3080     ;                       PixelUpdate();
                    3081                             ; SOURCE LINE # 368
0068 120000   F     3082             LCALL   PixelUpdate
                    3083     ; 
                    3084     ;       HAL_Delay(wait);
                    3085                             ; SOURCE LINE # 370
006B 900000   F     3086             MOV     DPTR,#wait?1676
006E 120000   F     3087             LCALL   L?0423
                    3088     ; 
                    3089     ;  
                    3090     ; 
                    3091     ;       for (i=0; i<numLEDs; i=i+3) 
                    3092                             ; SOURCE LINE # 374
0071 E4             3093             CLR     A
0072 900000   F     3094             MOV     DPTR,#i?1679
0075 F0             3095             MOVX    @DPTR,A
0076 A3             3096             INC     DPTR
0077 F0             3097             MOVX    @DPTR,A
0078                3098     ?C0093:
0078 900000   F     3099             MOV     DPTR,#i?1679
007B E0             3100             MOVX    A,@DPTR
007C FE             3101             MOV     R6,A
007D A3             3102             INC     DPTR
007E E0             3103             MOVX    A,@DPTR
007F FF             3104             MOV     R7,A
0080 C3             3105             CLR     C
0081 9440           3106             SUBB    A,#040H
0083 EE             3107             MOV     A,R6
0084 9400           3108             SUBB    A,#00H
0086 502A           3109             JNC     ?C0094
                    3110     ; 
                    3111     ;                       {
                    3112                             ; SOURCE LINE # 376
                    3113     ; 
                    3114     ;        SetPixelColor(i+q, 0);        //turn every third pixel off   
                    3115                             ; SOURCE LINE # 378
0088 900000   F     3116             MOV     DPTR,#q?1678
008B A3             3117             INC     DPTR
008C E0             3118             MOVX    A,@DPTR
008D FD             3119             MOV     R5,A
008E EF             3120             MOV     A,R7
008F 2D             3121             ADD     A,R5
0090 FF             3122             MOV     R7,A
A51 MACRO ASSEMBLER  TEXT1                                                                01/10/2019 19:42:26 PAGE    49

0091 C007           3123             PUSH    AR7
0093 900000   F     3124             MOV     DPTR,#?_SetPixelColor?BYTE+01H
0096 120000   F     3125             LCALL   ?C?LSTKXDATA
0099 00             3126             DB      00H
009A 00             3127             DB      00H
009B 00             3128             DB      00H
009C 00             3129             DB      00H
009D D007           3130             POP     AR7
009F 120000   F     3131             LCALL   _SetPixelColor
                    3132     ; 
                    3133     ;       }
                    3134                             ; SOURCE LINE # 380
00A2 900000   F     3135             MOV     DPTR,#i?1679+01H
00A5 E0             3136             MOVX    A,@DPTR
00A6 2403           3137             ADD     A,#03H
00A8 F0             3138             MOVX    @DPTR,A
00A9 900000   F     3139             MOV     DPTR,#i?1679
00AC E0             3140             MOVX    A,@DPTR
00AD 3400           3141             ADDC    A,#00H
00AF F0             3142             MOVX    @DPTR,A
00B0 80C6           3143             SJMP    ?C0093
00B2                3144     ?C0094:
                    3145     ; 
                    3146     ;                       PixelUpdate();
                    3147                             ; SOURCE LINE # 382
00B2 120000   F     3148             LCALL   PixelUpdate
                    3149     ; 
                    3150     ;     }
                    3151                             ; SOURCE LINE # 384
00B5 900000   F     3152             MOV     DPTR,#q?1678+01H
00B8 E0             3153             MOVX    A,@DPTR
00B9 04             3154             INC     A
00BA F0             3155             MOVX    @DPTR,A
00BB 7006           3156             JNZ     ?C0318
00BD 900000   F     3157             MOV     DPTR,#q?1678
00C0 E0             3158             MOVX    A,@DPTR
00C1 04             3159             INC     A
00C2 F0             3160             MOVX    @DPTR,A
00C3                3161     ?C0318:
00C3 C3             3162             CLR     C
00C4 900000   F     3163             MOV     DPTR,#q?1678+01H
00C7 E0             3164             MOVX    A,@DPTR
00C8 9403           3165             SUBB    A,#03H
00CA 900000   F     3166             MOV     DPTR,#q?1678
00CD E0             3167             MOVX    A,@DPTR
00CE 6480           3168             XRL     A,#080H
00D0 9480           3169             SUBB    A,#080H
00D2 5003           3170             JNC     $ + 5H
00D4 020000   F     3171             LJMP    ?C0087
                    3172     ; 
                    3173     ;   }
                    3174                             ; SOURCE LINE # 386
00D7                3175     ?C0086:
00D7 900000   F     3176             MOV     DPTR,#j?1677+01H
00DA E0             3177             MOVX    A,@DPTR
00DB 04             3178             INC     A
00DC F0             3179             MOVX    @DPTR,A
00DD 7006           3180             JNZ     ?C0319
00DF 900000   F     3181             MOV     DPTR,#j?1677
00E2 E0             3182             MOVX    A,@DPTR
00E3 04             3183             INC     A
00E4 F0             3184             MOVX    @DPTR,A
00E5                3185     ?C0319:
00E5 C3             3186             CLR     C
00E6 900000   F     3187             MOV     DPTR,#j?1677+01H
00E9 E0             3188             MOVX    A,@DPTR
A51 MACRO ASSEMBLER  TEXT1                                                                01/10/2019 19:42:26 PAGE    50

00EA 9401           3189             SUBB    A,#01H
00EC 900000   F     3190             MOV     DPTR,#j?1677
00EF E0             3191             MOVX    A,@DPTR
00F0 6480           3192             XRL     A,#080H
00F2 9480           3193             SUBB    A,#080H
00F4 5003           3194             JNC     $ + 5H
00F6 020000   F     3195             LJMP    ?C0084
                    3196     ; 
                    3197     ; }
                    3198                             ; SOURCE LINE # 388
00F9                3199     ?C0096:
00F9 22             3200             RET     
                    3201     ; END OF _theaterChase
                    3202     
                    3203     ; 
                    3204     ;  
                    3205     ; 
                    3206     ; //Theatre-style crawling lights with rainbow effect
                    3207     ; 
                    3208     ; //
                    3209     ; 
                    3210     ; void theaterChaseRainbow(unsigned int wait) 
                    3211     
----                3212             RSEG  ?PR?_theaterChaseRainbow?TEXT1
0000                3213     _theaterChaseRainbow:
                    3214             USING   0
                    3215                             ; SOURCE LINE # 396
0000 900000   F     3216             MOV     DPTR,#wait?1780
0003 EE             3217             MOV     A,R6
0004 F0             3218             MOVX    @DPTR,A
0005 A3             3219             INC     DPTR
0006 EF             3220             MOV     A,R7
0007 F0             3221             MOVX    @DPTR,A
                    3222     ; 
                    3223     ; {
                    3224                             ; SOURCE LINE # 398
                    3225     ; 
                    3226     ;       int j,q;
                    3227     ; 
                    3228     ;       unsigned int i;
                    3229     ; 
                    3230     ;   for (j=0; j < 1; j++) 
                    3231                             ; SOURCE LINE # 404
0008 E4             3232             CLR     A
0009 A3             3233             INC     DPTR
000A F0             3234             MOVX    @DPTR,A
000B A3             3235             INC     DPTR
000C F0             3236             MOVX    @DPTR,A
000D                3237     ?C0097:
                    3238     ; 
                    3239     ;       {     // cycle all 256 colors in the wheel 256
                    3240                             ; SOURCE LINE # 406
                    3241     ; 
                    3242     ;     for (q=0; q < 3; q++)
                    3243                             ; SOURCE LINE # 408
000D E4             3244             CLR     A
000E 900000   F     3245             MOV     DPTR,#q?1782
0011 F0             3246             MOVX    @DPTR,A
0012 A3             3247             INC     DPTR
0013 F0             3248             MOVX    @DPTR,A
0014                3249     ?C0100:
                    3250     ; 
                    3251     ;               {
                    3252                             ; SOURCE LINE # 410
                    3253     ; 
                    3254     ;       for (i=0; i < numLEDs; i=i+3) 
A51 MACRO ASSEMBLER  TEXT1                                                                01/10/2019 19:42:26 PAGE    51

                    3255                             ; SOURCE LINE # 412
0014 E4             3256             CLR     A
0015 900000   F     3257             MOV     DPTR,#i?1783
0018 F0             3258             MOVX    @DPTR,A
0019 A3             3259             INC     DPTR
001A F0             3260             MOVX    @DPTR,A
001B                3261     ?C0103:
001B 900000   F     3262             MOV     DPTR,#i?1783
001E E0             3263             MOVX    A,@DPTR
001F FE             3264             MOV     R6,A
0020 A3             3265             INC     DPTR
0021 E0             3266             MOVX    A,@DPTR
0022 FF             3267             MOV     R7,A
0023 C3             3268             CLR     C
0024 9440           3269             SUBB    A,#040H
0026 EE             3270             MOV     A,R6
0027 9400           3271             SUBB    A,#00H
0029 503E           3272             JNC     ?C0104
                    3273     ; 
                    3274     ;                       {
                    3275                             ; SOURCE LINE # 414
                    3276     ; 
                    3277     ;         SetPixelColor(i+q, Wheel( (i+j) % 255));    //turn every third pixel off 
                             
                    3278                             ; SOURCE LINE # 416
002B 900000   F     3279             MOV     DPTR,#j?1781
002E E0             3280             MOVX    A,@DPTR
002F FC             3281             MOV     R4,A
0030 A3             3282             INC     DPTR
0031 E0             3283             MOVX    A,@DPTR
0032 FD             3284             MOV     R5,A
0033 EF             3285             MOV     A,R7
0034 2D             3286             ADD     A,R5
0035 FF             3287             MOV     R7,A
0036 EE             3288             MOV     A,R6
0037 3C             3289             ADDC    A,R4
0038 FE             3290             MOV     R6,A
0039 7C00           3291             MOV     R4,#00H
003B 7DFF           3292             MOV     R5,#0FFH
003D 120000   F     3293             LCALL   ?C?UIDIV
0040 AF05           3294             MOV     R7,AR5
0042 120000   F     3295             LCALL   _Wheel
0045 900000   F     3296             MOV     DPTR,#?_SetPixelColor?BYTE+01H
0048 120000   F     3297             LCALL   ?C?LSTXDATA
004B 900000   F     3298             MOV     DPTR,#q?1782
004E A3             3299             INC     DPTR
004F E0             3300             MOVX    A,@DPTR
0050 FF             3301             MOV     R7,A
0051 A3             3302             INC     DPTR
0052 A3             3303             INC     DPTR
0053 E0             3304             MOVX    A,@DPTR
0054 2F             3305             ADD     A,R7
0055 FF             3306             MOV     R7,A
0056 120000   F     3307             LCALL   _SetPixelColor
                    3308     ; 
                    3309     ;       }
                    3310                             ; SOURCE LINE # 418
0059 900000   F     3311             MOV     DPTR,#i?1783+01H
005C E0             3312             MOVX    A,@DPTR
005D 2403           3313             ADD     A,#03H
005F F0             3314             MOVX    @DPTR,A
0060 900000   F     3315             MOV     DPTR,#i?1783
0063 E0             3316             MOVX    A,@DPTR
0064 3400           3317             ADDC    A,#00H
0066 F0             3318             MOVX    @DPTR,A
0067 80B2           3319             SJMP    ?C0103
A51 MACRO ASSEMBLER  TEXT1                                                                01/10/2019 19:42:26 PAGE    52

0069                3320     ?C0104:
                    3321     ; 
                    3322     ;       PixelUpdate();
                    3323                             ; SOURCE LINE # 420
0069 120000   F     3324             LCALL   PixelUpdate
                    3325     ; 
                    3326     ;  
                    3327     ; 
                    3328     ;       HAL_Delay(wait);
                    3329                             ; SOURCE LINE # 424
006C 900000   F     3330             MOV     DPTR,#wait?1780
006F 120000   F     3331             LCALL   L?0423
                    3332     ; 
                    3333     ;  
                    3334     ; 
                    3335     ;       for (i=0; i < numLEDs; i=i+3)
                    3336                             ; SOURCE LINE # 428
0072 E4             3337             CLR     A
0073 900000   F     3338             MOV     DPTR,#i?1783
0076 F0             3339             MOVX    @DPTR,A
0077 A3             3340             INC     DPTR
0078 F0             3341             MOVX    @DPTR,A
0079                3342     ?C0106:
0079 900000   F     3343             MOV     DPTR,#i?1783
007C E0             3344             MOVX    A,@DPTR
007D FE             3345             MOV     R6,A
007E A3             3346             INC     DPTR
007F E0             3347             MOVX    A,@DPTR
0080 FF             3348             MOV     R7,A
0081 C3             3349             CLR     C
0082 9440           3350             SUBB    A,#040H
0084 EE             3351             MOV     A,R6
0085 9400           3352             SUBB    A,#00H
0087 502A           3353             JNC     ?C0102
                    3354     ; 
                    3355     ;                       {
                    3356                             ; SOURCE LINE # 430
                    3357     ; 
                    3358     ;         SetPixelColor(i+q, 0);        //turn every third pixel off  
                    3359                             ; SOURCE LINE # 432
0089 900000   F     3360             MOV     DPTR,#q?1782
008C A3             3361             INC     DPTR
008D E0             3362             MOVX    A,@DPTR
008E FD             3363             MOV     R5,A
008F EF             3364             MOV     A,R7
0090 2D             3365             ADD     A,R5
0091 FF             3366             MOV     R7,A
0092 C007           3367             PUSH    AR7
0094 900000   F     3368             MOV     DPTR,#?_SetPixelColor?BYTE+01H
0097 120000   F     3369             LCALL   ?C?LSTKXDATA
009A 00             3370             DB      00H
009B 00             3371             DB      00H
009C 00             3372             DB      00H
009D 00             3373             DB      00H
009E D007           3374             POP     AR7
00A0 120000   F     3375             LCALL   _SetPixelColor
                    3376     ; 
                    3377     ;       }
                    3378                             ; SOURCE LINE # 434
00A3 900000   F     3379             MOV     DPTR,#i?1783+01H
00A6 E0             3380             MOVX    A,@DPTR
00A7 2403           3381             ADD     A,#03H
00A9 F0             3382             MOVX    @DPTR,A
00AA 900000   F     3383             MOV     DPTR,#i?1783
00AD E0             3384             MOVX    A,@DPTR
00AE 3400           3385             ADDC    A,#00H
A51 MACRO ASSEMBLER  TEXT1                                                                01/10/2019 19:42:26 PAGE    53

00B0 F0             3386             MOVX    @DPTR,A
00B1 80C6           3387             SJMP    ?C0106
                    3388     ; 
                    3389     ;     }
                    3390                             ; SOURCE LINE # 436
00B3                3391     ?C0102:
00B3 900000   F     3392             MOV     DPTR,#q?1782+01H
00B6 E0             3393             MOVX    A,@DPTR
00B7 04             3394             INC     A
00B8 F0             3395             MOVX    @DPTR,A
00B9 7006           3396             JNZ     ?C0320
00BB 900000   F     3397             MOV     DPTR,#q?1782
00BE E0             3398             MOVX    A,@DPTR
00BF 04             3399             INC     A
00C0 F0             3400             MOVX    @DPTR,A
00C1                3401     ?C0320:
00C1 C3             3402             CLR     C
00C2 900000   F     3403             MOV     DPTR,#q?1782+01H
00C5 E0             3404             MOVX    A,@DPTR
00C6 9403           3405             SUBB    A,#03H
00C8 900000   F     3406             MOV     DPTR,#q?1782
00CB E0             3407             MOVX    A,@DPTR
00CC 6480           3408             XRL     A,#080H
00CE 9480           3409             SUBB    A,#080H
00D0 5003           3410             JNC     $ + 5H
00D2 020000   F     3411             LJMP    ?C0100
                    3412     ; 
                    3413     ;   }
                    3414                             ; SOURCE LINE # 438
00D5                3415     ?C0099:
00D5 900000   F     3416             MOV     DPTR,#j?1781+01H
00D8 E0             3417             MOVX    A,@DPTR
00D9 04             3418             INC     A
00DA F0             3419             MOVX    @DPTR,A
00DB 7006           3420             JNZ     ?C0321
00DD 900000   F     3421             MOV     DPTR,#j?1781
00E0 E0             3422             MOVX    A,@DPTR
00E1 04             3423             INC     A
00E2 F0             3424             MOVX    @DPTR,A
00E3                3425     ?C0321:
00E3 C3             3426             CLR     C
00E4 900000   F     3427             MOV     DPTR,#j?1781+01H
00E7 E0             3428             MOVX    A,@DPTR
00E8 9401           3429             SUBB    A,#01H
00EA 900000   F     3430             MOV     DPTR,#j?1781
00ED E0             3431             MOVX    A,@DPTR
00EE 6480           3432             XRL     A,#080H
00F0 9480           3433             SUBB    A,#080H
00F2 5003           3434             JNC     $ + 5H
00F4 020000   F     3435             LJMP    ?C0097
00F7                3436     ?C0098:
                    3437     ;       ReSet();
                    3438                             ; SOURCE LINE # 439
00F7 020000   F     3439             LJMP    ReSet
                    3440     ; END OF _theaterChaseRainbow
                    3441     
                    3442     ; }
                    3443     ; 
                    3444     ; // Fill the dots one after the other with a color
                    3445     ; //
                    3446     ; void colorWipe(unsigned long c, unsigned int wait)
                    3447     
----                3448             RSEG  ?PR?_colorWipe?TEXT1
0000                3449     _colorWipe:
                    3450             USING   0
                    3451                             ; SOURCE LINE # 444
A51 MACRO ASSEMBLER  TEXT1                                                                01/10/2019 19:42:26 PAGE    54

0000 900000   F     3452             MOV     DPTR,#c?1884
0003 120000   F     3453             LCALL   ?C?LSTXDATA
                    3454     ; 
                    3455     ; {
                    3456                             ; SOURCE LINE # 446
                    3457     ; 
                    3458     ;       unsigned int i = 0;
                    3459                             ; SOURCE LINE # 448
0006 E4             3460             CLR     A
0007 900000   F     3461             MOV     DPTR,#i?1886
000A F0             3462             MOVX    @DPTR,A
000B A3             3463             INC     DPTR
000C F0             3464             MOVX    @DPTR,A
                    3465     ; 
                    3466     ;       for (i = 0; i<numLEDs; i++)
                    3467                             ; SOURCE LINE # 450
000D 900000   F     3468             MOV     DPTR,#i?1886
0010 F0             3469             MOVX    @DPTR,A
0011 A3             3470             INC     DPTR
0012 F0             3471             MOVX    @DPTR,A
0013                3472     ?C0110:
0013 900000   F     3473             MOV     DPTR,#i?1886
0016 E0             3474             MOVX    A,@DPTR
0017 FE             3475             MOV     R6,A
0018 A3             3476             INC     DPTR
0019 E0             3477             MOVX    A,@DPTR
001A FF             3478             MOV     R7,A
001B C3             3479             CLR     C
001C 9440           3480             SUBB    A,#040H
001E EE             3481             MOV     A,R6
001F 9400           3482             SUBB    A,#00H
0021 502E           3483             JNC     ?C0111
                    3484     ; 
                    3485     ;       {
                    3486                             ; SOURCE LINE # 452
                    3487     ; 
                    3488     ;               SetPixelColor(i, c);
                    3489                             ; SOURCE LINE # 454
0023 C007           3490             PUSH    AR7
0025 900000   F     3491             MOV     DPTR,#c?1884
0028 E0             3492             MOVX    A,@DPTR
0029 FC             3493             MOV     R4,A
002A A3             3494             INC     DPTR
002B E0             3495             MOVX    A,@DPTR
002C FD             3496             MOV     R5,A
002D A3             3497             INC     DPTR
002E E0             3498             MOVX    A,@DPTR
002F FE             3499             MOV     R6,A
0030 A3             3500             INC     DPTR
0031 E0             3501             MOVX    A,@DPTR
0032 FF             3502             MOV     R7,A
0033 900000   F     3503             MOV     DPTR,#?_SetPixelColor?BYTE+01H
0036 120000   F     3504             LCALL   ?C?LSTXDATA
0039 D007           3505             POP     AR7
003B 120000   F     3506             LCALL   _SetPixelColor
                    3507     ; 
                    3508     ;               PixelUpdate();
                    3509                             ; SOURCE LINE # 456
003E 120000   F     3510             LCALL   PixelUpdate
                    3511     ; 
                    3512     ;               //HAL_Delay(wait);
                    3513     ; 
                    3514     ;       }
                    3515                             ; SOURCE LINE # 460
0041 900000   F     3516             MOV     DPTR,#i?1886+01H
0044 E0             3517             MOVX    A,@DPTR
A51 MACRO ASSEMBLER  TEXT1                                                                01/10/2019 19:42:26 PAGE    55

0045 04             3518             INC     A
0046 F0             3519             MOVX    @DPTR,A
0047 70CA           3520             JNZ     ?C0110
0049 900000   F     3521             MOV     DPTR,#i?1886
004C E0             3522             MOVX    A,@DPTR
004D 04             3523             INC     A
004E F0             3524             MOVX    @DPTR,A
004F                3525     ?C0322:
004F 80C2           3526             SJMP    ?C0110
0051                3527     ?C0111:
                    3528     ;       ReSet();
                    3529                             ; SOURCE LINE # 461
0051 020000   F     3530             LJMP    ReSet
                    3531     ; END OF _colorWipe
                    3532     
                    3533     ; 
                    3534     ; }
                    3535     ; void zidingyi1()
                    3536     
----                3537             RSEG  ?PR?zidingyi1?TEXT1
0000                3538     zidingyi1:
                    3539             USING   0
                    3540                             ; SOURCE LINE # 464
                    3541     ; 
                    3542     ; {
                    3543                             ; SOURCE LINE # 466
0000                3544     ?C0114:
                    3545     ; 
                    3546     ; 
                    3547     ; 
                    3548     ;       while (1)
                    3549                             ; SOURCE LINE # 470
                    3550     ; 
                    3551     ;       {
                    3552                             ; SOURCE LINE # 472
                    3553     ; 
                    3554     ;               rainbow(45);
                    3555                             ; SOURCE LINE # 474
0000 7F2D           3556             MOV     R7,#02DH
0002 7E00           3557             MOV     R6,#00H
0004 120000   F     3558             LCALL   _rainbow
                    3559     ; 
                    3560     ;               rainbowCycle(40);
                    3561                             ; SOURCE LINE # 476
0007 7F28           3562             MOV     R7,#028H
0009 7E00           3563             MOV     R6,#00H
000B 120000   F     3564             LCALL   _rainbowCycle
                    3565     ; 
                    3566     ;               theaterChase(Color(0, 0, 255), 80); // Blue
                    3567                             ; SOURCE LINE # 478
000E 7BFF           3568             MOV     R3,#0FFH
0010 E4             3569             CLR     A
0011 FD             3570             MOV     R5,A
0012 FF             3571             MOV     R7,A
0013 120000   F     3572             LCALL   _Color
0016 120000   F     3573             LCALL   L?0419
                    3574     ; 
                    3575     ;               theaterChase(Color(0, 255, 0), 80); // Blue
                    3576                             ; SOURCE LINE # 480
0019 E4             3577             CLR     A
001A FB             3578             MOV     R3,A
001B 7DFF           3579             MOV     R5,#0FFH
001D FF             3580             MOV     R7,A
001E 120000   F     3581             LCALL   _Color
0021 120000   F     3582             LCALL   L?0419
                    3583     ; 
A51 MACRO ASSEMBLER  TEXT1                                                                01/10/2019 19:42:26 PAGE    56

                    3584     ;               theaterChase(Color(255, 0, 0), 80); // Blue
                    3585                             ; SOURCE LINE # 482
0024 E4             3586             CLR     A
0025 FB             3587             MOV     R3,A
0026 FD             3588             MOV     R5,A
0027 7FFF           3589             MOV     R7,#0FFH
0029 120000   F     3590             LCALL   _Color
002C 120000   F     3591             LCALL   L?0420
                    3592     ; 
                    3593     ;               theaterChaseRainbow(40);
                    3594                             ; SOURCE LINE # 484
002F 7F28           3595             MOV     R7,#028H
0031 7E00           3596             MOV     R6,#00H
0033 120000   F     3597             LCALL   _theaterChaseRainbow
                    3598     ; 
                    3599     ;               colorWipe(255, 255);
                    3600                             ; SOURCE LINE # 486
0036 900000   F     3601             MOV     DPTR,#?_colorWipe?BYTE+04H
0039 E4             3602             CLR     A
003A F0             3603             MOVX    @DPTR,A
003B A3             3604             INC     DPTR
003C 74FF           3605             MOV     A,#0FFH
003E F0             3606             MOVX    @DPTR,A
003F FF             3607             MOV     R7,A
0040 7E00           3608             MOV     R6,#00H
0042 7D00           3609             MOV     R5,#00H
0044 7C00           3610             MOV     R4,#00H
0046 120000   F     3611             LCALL   _colorWipe
                    3612     ; 
                    3613     ;       }
                    3614                             ; SOURCE LINE # 488
0049 80B5           3615             SJMP    ?C0114
                    3616     ; END OF zidingyi1
                    3617     
                    3618     ; 
                    3619     ; }
                    3620     ; // 
                    3621     ; 
                    3622     ; 
                    3623     ; 
                    3624     ; void LightEffect8(uint num)
                    3625     
----                3626             RSEG  ?PR?_LightEffect8?TEXT1
0000                3627     _LightEffect8:
                    3628             USING   0
                    3629                             ; SOURCE LINE # 495
0000 900000   F     3630             MOV     DPTR,#num?2087
0003 EE             3631             MOV     A,R6
0004 F0             3632             MOVX    @DPTR,A
0005 A3             3633             INC     DPTR
0006 EF             3634             MOV     A,R7
0007 F0             3635             MOVX    @DPTR,A
                    3636     ; {
                    3637                             ; SOURCE LINE # 496
                    3638     ;       SetPointColour(num, 255, 0, 0);
                    3639                             ; SOURCE LINE # 497
0008 E4             3640             CLR     A
0009 900000   F     3641             MOV     DPTR,#?_SetPointColour?BYTE+04H
000C F0             3642             MOVX    @DPTR,A
000D FB             3643             MOV     R3,A
000E 7DFF           3644             MOV     R5,#0FFH
0010 120000   F     3645             LCALL   _SetPointColour
                    3646     ;       Delay1ms(200);
                    3647                             ; SOURCE LINE # 498
0013 7FC8           3648             MOV     R7,#0C8H
0015 120000   F     3649             LCALL   _Delay1ms
A51 MACRO ASSEMBLER  TEXT1                                                                01/10/2019 19:42:26 PAGE    57

                    3650     ;       SetPointColour(num,255,255,255);
                    3651                             ; SOURCE LINE # 499
0018 900000   F     3652             MOV     DPTR,#num?2087
001B E0             3653             MOVX    A,@DPTR
001C FE             3654             MOV     R6,A
001D A3             3655             INC     DPTR
001E E0             3656             MOVX    A,@DPTR
001F FF             3657             MOV     R7,A
0020 900000   F     3658             MOV     DPTR,#?_SetPointColour?BYTE+04H
0023 74FF           3659             MOV     A,#0FFH
0025 F0             3660             MOVX    @DPTR,A
0026 FB             3661             MOV     R3,A
0027 FD             3662             MOV     R5,A
0028 120000   F     3663             LCALL   _SetPointColour
                    3664     ;       Delay1ms(200);
                    3665                             ; SOURCE LINE # 500
002B 7FC8           3666             MOV     R7,#0C8H
002D 120000   F     3667             LCALL   _Delay1ms
                    3668     ;       SetPointColour(num,0,0,255);
                    3669                             ; SOURCE LINE # 501
0030 900000   F     3670             MOV     DPTR,#num?2087
0033 E0             3671             MOVX    A,@DPTR
0034 FE             3672             MOV     R6,A
0035 A3             3673             INC     DPTR
0036 E0             3674             MOVX    A,@DPTR
0037 FF             3675             MOV     R7,A
0038 900000   F     3676             MOV     DPTR,#?_SetPointColour?BYTE+04H
003B 74FF           3677             MOV     A,#0FFH
003D F0             3678             MOVX    @DPTR,A
003E E4             3679             CLR     A
003F FB             3680             MOV     R3,A
0040 FD             3681             MOV     R5,A
0041 120000   F     3682             LCALL   _SetPointColour
                    3683     ;       Delay1ms(200);
                    3684                             ; SOURCE LINE # 502
0044 7FC8           3685             MOV     R7,#0C8H
0046 120000   F     3686             LCALL   _Delay1ms
                    3687     ;       //SentPixelColor(num, 0);
                    3688     ;       ReSet();
                    3689                             ; SOURCE LINE # 504
0049 020000   F     3690             LJMP    ReSet
                    3691     ; END OF _LightEffect8
                    3692     
                    3693     ; }
                    3694     ; void LightEffect1_1(void)       //
                    3695     
----                3696             RSEG  ?PR?LightEffect1_1?TEXT1
0000                3697     LightEffect1_1:
                    3698             USING   0
                    3699                             ; SOURCE LINE # 506
                    3700     ; {
                    3701                             ; SOURCE LINE # 507
                    3702     ;       int i, k;
                    3703     ;       for (k = 0; k<8 * N; k = k + 8)         //N
                    3704                             ; SOURCE LINE # 509
0000 E4             3705             CLR     A
0001 900000   F     3706             MOV     DPTR,#k?2189
0004 F0             3707             MOVX    @DPTR,A
0005 A3             3708             INC     DPTR
0006 F0             3709             MOVX    @DPTR,A
0007                3710     ?C0118:
0007 C3             3711             CLR     C
0008 900000   F     3712             MOV     DPTR,#k?2189+01H
000B E0             3713             MOVX    A,@DPTR
000C 9428           3714             SUBB    A,#028H
000E 900000   F     3715             MOV     DPTR,#k?2189
A51 MACRO ASSEMBLER  TEXT1                                                                01/10/2019 19:42:26 PAGE    58

0011 E0             3716             MOVX    A,@DPTR
0012 6480           3717             XRL     A,#080H
0014 9480           3718             SUBB    A,#080H
0016 4003           3719             JC      $ + 5H
0018 020000   F     3720             LJMP    ?C0119
                    3721     ;       {
                    3722                             ; SOURCE LINE # 510
                    3723     ;               for (i = 0; i<8; i++)
                    3724                             ; SOURCE LINE # 511
001B E4             3725             CLR     A
001C 900000   F     3726             MOV     DPTR,#i?2188
001F F0             3727             MOVX    @DPTR,A
0020 A3             3728             INC     DPTR
0021 F0             3729             MOVX    @DPTR,A
0022                3730     ?C0121:
0022 900000   F     3731             MOV     DPTR,#i?2188
0025 E0             3732             MOVX    A,@DPTR
0026 FA             3733             MOV     R2,A
0027 A3             3734             INC     DPTR
0028 E0             3735             MOVX    A,@DPTR
0029 FB             3736             MOV     R3,A
002A C3             3737             CLR     C
002B 9408           3738             SUBB    A,#08H
002D EA             3739             MOV     A,R2
002E 6480           3740             XRL     A,#080H
0030 9480           3741             SUBB    A,#080H
0032 5077           3742             JNC     ?C0120
                    3743     ;               {
                    3744                             ; SOURCE LINE # 512
                    3745     ;                       SentPixelColor(i, Color(0, 0, i + k * 64 / (N)));        //
                    3746                             ; SOURCE LINE # 513
0034 A3             3747             INC     DPTR
0035 E0             3748             MOVX    A,@DPTR
0036 FE             3749             MOV     R6,A
0037 A3             3750             INC     DPTR
0038 E0             3751             MOVX    A,@DPTR
0039 7806           3752             MOV     R0,#06H
003B                3753     ?C0323:
003B C3             3754             CLR     C
003C 33             3755             RLC     A
003D CE             3756             XCH     A,R6
003E 33             3757             RLC     A
003F CE             3758             XCH     A,R6
0040 D8F9           3759             DJNZ    R0,?C0323
0042 FF             3760             MOV     R7,A
0043 7C00           3761             MOV     R4,#00H
0045 7D05           3762             MOV     R5,#05H
0047 120000   F     3763             LCALL   ?C?SIDIV
004A EB             3764             MOV     A,R3
004B 2F             3765             ADD     A,R7
004C FB             3766             MOV     R3,A
004D E4             3767             CLR     A
004E FD             3768             MOV     R5,A
004F FF             3769             MOV     R7,A
0050 120000   F     3770             LCALL   _Color
0053 900000   F     3771             MOV     DPTR,#?_SentPixelColor?BYTE+01H
0056 120000   F     3772             LCALL   ?C?LSTXDATA
0059 900000   F     3773             MOV     DPTR,#i?2188
005C A3             3774             INC     DPTR
005D E0             3775             MOVX    A,@DPTR
005E FF             3776             MOV     R7,A
005F 120000   F     3777             LCALL   _SentPixelColor
                    3778     ;                       SentPixelColor(i * 8, Color(0, 0, i + k * 64 / (N)));    //
                    3779                             ; SOURCE LINE # 514
0062 900000   F     3780             MOV     DPTR,#k?2189
0065 E0             3781             MOVX    A,@DPTR
A51 MACRO ASSEMBLER  TEXT1                                                                01/10/2019 19:42:26 PAGE    59

0066 FE             3782             MOV     R6,A
0067 A3             3783             INC     DPTR
0068 E0             3784             MOVX    A,@DPTR
0069 7806           3785             MOV     R0,#06H
006B                3786     ?C0324:
006B C3             3787             CLR     C
006C 33             3788             RLC     A
006D CE             3789             XCH     A,R6
006E 33             3790             RLC     A
006F CE             3791             XCH     A,R6
0070 D8F9           3792             DJNZ    R0,?C0324
0072 FF             3793             MOV     R7,A
0073 7C00           3794             MOV     R4,#00H
0075 7D05           3795             MOV     R5,#05H
0077 120000   F     3796             LCALL   ?C?SIDIV
007A 900000   F     3797             MOV     DPTR,#i?2188
007D A3             3798             INC     DPTR
007E E0             3799             MOVX    A,@DPTR
007F 2F             3800             ADD     A,R7
0080 FB             3801             MOV     R3,A
0081 E4             3802             CLR     A
0082 FD             3803             MOV     R5,A
0083 FF             3804             MOV     R7,A
0084 120000   F     3805             LCALL   _Color
0087 900000   F     3806             MOV     DPTR,#?_SentPixelColor?BYTE+01H
008A 120000   F     3807             LCALL   ?C?LSTXDATA
008D 900000   F     3808             MOV     DPTR,#i?2188
0090 A3             3809             INC     DPTR
0091 E0             3810             MOVX    A,@DPTR
0092 75F008         3811             MOV     B,#08H
0095 A4             3812             MUL     AB
0096 FF             3813             MOV     R7,A
0097 120000   F     3814             LCALL   _SentPixelColor
                    3815     ;               }
                    3816                             ; SOURCE LINE # 515
009A 900000   F     3817             MOV     DPTR,#i?2188+01H
009D E0             3818             MOVX    A,@DPTR
009E 04             3819             INC     A
009F F0             3820             MOVX    @DPTR,A
00A0 7080           3821             JNZ     ?C0121
00A2 900000   F     3822             MOV     DPTR,#i?2188
00A5 E0             3823             MOVX    A,@DPTR
00A6 04             3824             INC     A
00A7 F0             3825             MOVX    @DPTR,A
00A8                3826     ?C0325:
00A8 020000   F     3827             LJMP    ?C0121
                    3828     ;       }
                    3829                             ; SOURCE LINE # 516
00AB                3830     ?C0120:
00AB 900000   F     3831             MOV     DPTR,#k?2189+01H
00AE E0             3832             MOVX    A,@DPTR
00AF 2408           3833             ADD     A,#08H
00B1 F0             3834             MOVX    @DPTR,A
00B2 900000   F     3835             MOV     DPTR,#k?2189
00B5 E0             3836             MOVX    A,@DPTR
00B6 3400           3837             ADDC    A,#00H
00B8 F0             3838             MOVX    @DPTR,A
00B9 020000   F     3839             LJMP    ?C0118
00BC                3840     ?C0119:
                    3841     ;       for (i = 0; i<8; i++)             //clear all
                    3842                             ; SOURCE LINE # 517
00BC E4             3843             CLR     A
00BD 900000   F     3844             MOV     DPTR,#i?2188
00C0 F0             3845             MOVX    @DPTR,A
00C1 A3             3846             INC     DPTR
00C2 F0             3847             MOVX    @DPTR,A
A51 MACRO ASSEMBLER  TEXT1                                                                01/10/2019 19:42:26 PAGE    60

00C3                3848     ?C0124:
00C3 900000   F     3849             MOV     DPTR,#i?2188
00C6 E0             3850             MOVX    A,@DPTR
00C7 FE             3851             MOV     R6,A
00C8 A3             3852             INC     DPTR
00C9 E0             3853             MOVX    A,@DPTR
00CA FF             3854             MOV     R7,A
00CB C3             3855             CLR     C
00CC 9408           3856             SUBB    A,#08H
00CE EE             3857             MOV     A,R6
00CF 6480           3858             XRL     A,#080H
00D1 9480           3859             SUBB    A,#080H
00D3 503C           3860             JNC     ?C0127
                    3861     ;       {
                    3862                             ; SOURCE LINE # 518
                    3863     ;               SentPixelColor(i, 0);
                    3864                             ; SOURCE LINE # 519
00D5 C007           3865             PUSH    AR7
00D7 900000   F     3866             MOV     DPTR,#?_SentPixelColor?BYTE+01H
00DA 120000   F     3867             LCALL   ?C?LSTKXDATA
00DD 00             3868             DB      00H
00DE 00             3869             DB      00H
00DF 00             3870             DB      00H
00E0 00             3871             DB      00H
00E1 D007           3872             POP     AR7
00E3 120000   F     3873             LCALL   _SentPixelColor
                    3874     ;               SentPixelColor(i * 8, 0);
                    3875                             ; SOURCE LINE # 520
00E6 900000   F     3876             MOV     DPTR,#i?2188
00E9 A3             3877             INC     DPTR
00EA E0             3878             MOVX    A,@DPTR
00EB 75F008         3879             MOV     B,#08H
00EE A4             3880             MUL     AB
00EF FF             3881             MOV     R7,A
00F0 C007           3882             PUSH    AR7
00F2 900000   F     3883             MOV     DPTR,#?_SentPixelColor?BYTE+01H
00F5 120000   F     3884             LCALL   ?C?LSTKXDATA
00F8 00             3885             DB      00H
00F9 00             3886             DB      00H
00FA 00             3887             DB      00H
00FB 00             3888             DB      00H
00FC D007           3889             POP     AR7
00FE 120000   F     3890             LCALL   _SentPixelColor
                    3891     ;       }
                    3892                             ; SOURCE LINE # 521
0101 900000   F     3893             MOV     DPTR,#i?2188+01H
0104 E0             3894             MOVX    A,@DPTR
0105 04             3895             INC     A
0106 F0             3896             MOVX    @DPTR,A
0107 70BA           3897             JNZ     ?C0124
0109 900000   F     3898             MOV     DPTR,#i?2188
010C E0             3899             MOVX    A,@DPTR
010D 04             3900             INC     A
010E F0             3901             MOVX    @DPTR,A
010F                3902     ?C0326:
010F 80B2           3903             SJMP    ?C0124
                    3904     ; }
                    3905                             ; SOURCE LINE # 522
0111                3906     ?C0127:
0111 22             3907             RET     
                    3908     ; END OF LightEffect1_1
                    3909     
                    3910     ; void LightEffect1_8(void)              //
                    3911     
----                3912             RSEG  ?PR?LightEffect1_8?TEXT1
0000                3913     LightEffect1_8:
A51 MACRO ASSEMBLER  TEXT1                                                                01/10/2019 19:42:26 PAGE    61

                    3914             USING   0
                    3915                             ; SOURCE LINE # 523
                    3916     ; {
                    3917                             ; SOURCE LINE # 524
                    3918     ;       int i, k;
                    3919     ;       for (k = 0; k<8 * N; k = k + 8)
                    3920                             ; SOURCE LINE # 526
0000 E4             3921             CLR     A
0001 900000   F     3922             MOV     DPTR,#k?2291
0004 F0             3923             MOVX    @DPTR,A
0005 A3             3924             INC     DPTR
0006 F0             3925             MOVX    @DPTR,A
0007                3926     ?C0128:
0007 C3             3927             CLR     C
0008 900000   F     3928             MOV     DPTR,#k?2291+01H
000B E0             3929             MOVX    A,@DPTR
000C 9428           3930             SUBB    A,#028H
000E 900000   F     3931             MOV     DPTR,#k?2291
0011 E0             3932             MOVX    A,@DPTR
0012 6480           3933             XRL     A,#080H
0014 9480           3934             SUBB    A,#080H
0016 4003           3935             JC      $ + 5H
0018 020000   F     3936             LJMP    ?C0129
                    3937     ;       {
                    3938                             ; SOURCE LINE # 527
                    3939     ;               for (i = 0; i<8; i++)
                    3940                             ; SOURCE LINE # 528
001B E4             3941             CLR     A
001C 900000   F     3942             MOV     DPTR,#i?2290
001F F0             3943             MOVX    @DPTR,A
0020 A3             3944             INC     DPTR
0021 F0             3945             MOVX    @DPTR,A
0022                3946     ?C0131:
0022 900000   F     3947             MOV     DPTR,#i?2290
0025 E0             3948             MOVX    A,@DPTR
0026 FA             3949             MOV     R2,A
0027 A3             3950             INC     DPTR
0028 E0             3951             MOVX    A,@DPTR
0029 FB             3952             MOV     R3,A
002A C3             3953             CLR     C
002B 9408           3954             SUBB    A,#08H
002D EA             3955             MOV     A,R2
002E 6480           3956             XRL     A,#080H
0030 9480           3957             SUBB    A,#080H
0032 4003           3958             JC      $ + 5H
0034 020000   F     3959             LJMP    ?C0130
                    3960     ;               {
                    3961                             ; SOURCE LINE # 529
                    3962     ;                       SentPixelColor(7 - i, Color(i + k * 64 / (N), 0, 0));            //
                             
                    3963                             ; SOURCE LINE # 530
0037 A3             3964             INC     DPTR
0038 E0             3965             MOVX    A,@DPTR
0039 FE             3966             MOV     R6,A
003A A3             3967             INC     DPTR
003B E0             3968             MOVX    A,@DPTR
003C 7806           3969             MOV     R0,#06H
003E                3970     ?C0327:
003E C3             3971             CLR     C
003F 33             3972             RLC     A
0040 CE             3973             XCH     A,R6
0041 33             3974             RLC     A
0042 CE             3975             XCH     A,R6
0043 D8F9           3976             DJNZ    R0,?C0327
0045 FF             3977             MOV     R7,A
0046 7C00           3978             MOV     R4,#00H
A51 MACRO ASSEMBLER  TEXT1                                                                01/10/2019 19:42:26 PAGE    62

0048 7D05           3979             MOV     R5,#05H
004A 120000   F     3980             LCALL   ?C?SIDIV
004D EB             3981             MOV     A,R3
004E 2F             3982             ADD     A,R7
004F FF             3983             MOV     R7,A
0050 E4             3984             CLR     A
0051 FB             3985             MOV     R3,A
0052 FD             3986             MOV     R5,A
0053 120000   F     3987             LCALL   _Color
0056 900000   F     3988             MOV     DPTR,#?_SentPixelColor?BYTE+01H
0059 120000   F     3989             LCALL   ?C?LSTXDATA
005C 900000   F     3990             MOV     DPTR,#i?2290
005F A3             3991             INC     DPTR
0060 E0             3992             MOVX    A,@DPTR
0061 FF             3993             MOV     R7,A
0062 C3             3994             CLR     C
0063 7407           3995             MOV     A,#07H
0065 9F             3996             SUBB    A,R7
0066 FF             3997             MOV     R7,A
0067 120000   F     3998             LCALL   _SentPixelColor
                    3999     ;                       SentPixelColor(i * 8 + 7, Color(i + k * 64 / (N), 0, 0));        //
                             
                    4000                             ; SOURCE LINE # 531
006A 900000   F     4001             MOV     DPTR,#k?2291
006D E0             4002             MOVX    A,@DPTR
006E FE             4003             MOV     R6,A
006F A3             4004             INC     DPTR
0070 E0             4005             MOVX    A,@DPTR
0071 7806           4006             MOV     R0,#06H
0073                4007     ?C0328:
0073 C3             4008             CLR     C
0074 33             4009             RLC     A
0075 CE             4010             XCH     A,R6
0076 33             4011             RLC     A
0077 CE             4012             XCH     A,R6
0078 D8F9           4013             DJNZ    R0,?C0328
007A FF             4014             MOV     R7,A
007B 7C00           4015             MOV     R4,#00H
007D 7D05           4016             MOV     R5,#05H
007F 120000   F     4017             LCALL   ?C?SIDIV
0082 900000   F     4018             MOV     DPTR,#i?2290
0085 A3             4019             INC     DPTR
0086 E0             4020             MOVX    A,@DPTR
0087 2F             4021             ADD     A,R7
0088 FF             4022             MOV     R7,A
0089 E4             4023             CLR     A
008A FB             4024             MOV     R3,A
008B FD             4025             MOV     R5,A
008C 120000   F     4026             LCALL   _Color
008F 900000   F     4027             MOV     DPTR,#?_SentPixelColor?BYTE+01H
0092 120000   F     4028             LCALL   ?C?LSTXDATA
0095 900000   F     4029             MOV     DPTR,#i?2290
0098 A3             4030             INC     DPTR
0099 E0             4031             MOVX    A,@DPTR
009A 75F008         4032             MOV     B,#08H
009D A4             4033             MUL     AB
009E 2407           4034             ADD     A,#07H
00A0 FF             4035             MOV     R7,A
00A1 120000   F     4036             LCALL   _SentPixelColor
                    4037     ;               }
                    4038                             ; SOURCE LINE # 532
00A4 900000   F     4039             MOV     DPTR,#i?2290+01H
00A7 E0             4040             MOVX    A,@DPTR
00A8 04             4041             INC     A
00A9 F0             4042             MOVX    @DPTR,A
00AA 6003           4043             JZ      $ + 5H
A51 MACRO ASSEMBLER  TEXT1                                                                01/10/2019 19:42:26 PAGE    63

00AC 020000   F     4044             LJMP    ?C0131
00AF 900000   F     4045             MOV     DPTR,#i?2290
00B2 E0             4046             MOVX    A,@DPTR
00B3 04             4047             INC     A
00B4 F0             4048             MOVX    @DPTR,A
00B5                4049     ?C0329:
00B5 020000   F     4050             LJMP    ?C0131
                    4051     ;       }
                    4052                             ; SOURCE LINE # 533
00B8                4053     ?C0130:
00B8 900000   F     4054             MOV     DPTR,#k?2291+01H
00BB E0             4055             MOVX    A,@DPTR
00BC 2408           4056             ADD     A,#08H
00BE F0             4057             MOVX    @DPTR,A
00BF 900000   F     4058             MOV     DPTR,#k?2291
00C2 E0             4059             MOVX    A,@DPTR
00C3 3400           4060             ADDC    A,#00H
00C5 F0             4061             MOVX    @DPTR,A
00C6 020000   F     4062             LJMP    ?C0128
00C9                4063     ?C0129:
                    4064     ;       for (i = 0; i<8; i++)             //clear all
                    4065                             ; SOURCE LINE # 534
00C9 E4             4066             CLR     A
00CA 900000   F     4067             MOV     DPTR,#i?2290
00CD F0             4068             MOVX    @DPTR,A
00CE A3             4069             INC     DPTR
00CF F0             4070             MOVX    @DPTR,A
00D0                4071     ?C0134:
00D0 900000   F     4072             MOV     DPTR,#i?2290
00D3 E0             4073             MOVX    A,@DPTR
00D4 FE             4074             MOV     R6,A
00D5 A3             4075             INC     DPTR
00D6 E0             4076             MOVX    A,@DPTR
00D7 FF             4077             MOV     R7,A
00D8 C3             4078             CLR     C
00D9 9408           4079             SUBB    A,#08H
00DB EE             4080             MOV     A,R6
00DC 6480           4081             XRL     A,#080H
00DE 9480           4082             SUBB    A,#080H
00E0 5043           4083             JNC     ?C0137
                    4084     ;       {
                    4085                             ; SOURCE LINE # 535
                    4086     ;               SentPixelColor(7 - i, 0);
                    4087                             ; SOURCE LINE # 536
00E2 C3             4088             CLR     C
00E3 7407           4089             MOV     A,#07H
00E5 9F             4090             SUBB    A,R7
00E6 FF             4091             MOV     R7,A
00E7 C007           4092             PUSH    AR7
00E9 900000   F     4093             MOV     DPTR,#?_SentPixelColor?BYTE+01H
00EC 120000   F     4094             LCALL   ?C?LSTKXDATA
00EF 00             4095             DB      00H
00F0 00             4096             DB      00H
00F1 00             4097             DB      00H
00F2 00             4098             DB      00H
00F3 D007           4099             POP     AR7
00F5 120000   F     4100             LCALL   _SentPixelColor
                    4101     ;               SentPixelColor(i * 8 + 7, 0);
                    4102                             ; SOURCE LINE # 537
00F8 900000   F     4103             MOV     DPTR,#i?2290
00FB A3             4104             INC     DPTR
00FC E0             4105             MOVX    A,@DPTR
00FD 75F008         4106             MOV     B,#08H
0100 A4             4107             MUL     AB
0101 2407           4108             ADD     A,#07H
0103 FF             4109             MOV     R7,A
A51 MACRO ASSEMBLER  TEXT1                                                                01/10/2019 19:42:26 PAGE    64

0104 C007           4110             PUSH    AR7
0106 900000   F     4111             MOV     DPTR,#?_SentPixelColor?BYTE+01H
0109 120000   F     4112             LCALL   ?C?LSTKXDATA
010C 00             4113             DB      00H
010D 00             4114             DB      00H
010E 00             4115             DB      00H
010F 00             4116             DB      00H
0110 D007           4117             POP     AR7
0112 120000   F     4118             LCALL   _SentPixelColor
                    4119     ;       }
                    4120                             ; SOURCE LINE # 538
0115 900000   F     4121             MOV     DPTR,#i?2290+01H
0118 E0             4122             MOVX    A,@DPTR
0119 04             4123             INC     A
011A F0             4124             MOVX    @DPTR,A
011B 70B3           4125             JNZ     ?C0134
011D 900000   F     4126             MOV     DPTR,#i?2290
0120 E0             4127             MOVX    A,@DPTR
0121 04             4128             INC     A
0122 F0             4129             MOVX    @DPTR,A
0123                4130     ?C0330:
0123 80AB           4131             SJMP    ?C0134
                    4132     ; }
                    4133                             ; SOURCE LINE # 539
0125                4134     ?C0137:
0125 22             4135             RET     
                    4136     ; END OF LightEffect1_8
                    4137     
                    4138     ; void LightEffect8_1(void)              //
                    4139     
----                4140             RSEG  ?PR?LightEffect8_1?TEXT1
0000                4141     LightEffect8_1:
                    4142             USING   0
                    4143                             ; SOURCE LINE # 540
                    4144     ; {
                    4145                             ; SOURCE LINE # 541
                    4146     ;       int i, k;
                    4147     ;       for (k = 0; k<8 * N; k = k + 8)
                    4148                             ; SOURCE LINE # 543
0000 E4             4149             CLR     A
0001 900000   F     4150             MOV     DPTR,#k?2393
0004 F0             4151             MOVX    @DPTR,A
0005 A3             4152             INC     DPTR
0006 F0             4153             MOVX    @DPTR,A
0007                4154     ?C0138:
0007 C3             4155             CLR     C
0008 900000   F     4156             MOV     DPTR,#k?2393+01H
000B E0             4157             MOVX    A,@DPTR
000C 9428           4158             SUBB    A,#028H
000E 900000   F     4159             MOV     DPTR,#k?2393
0011 E0             4160             MOVX    A,@DPTR
0012 6480           4161             XRL     A,#080H
0014 9480           4162             SUBB    A,#080H
0016 4003           4163             JC      $ + 5H
0018 020000   F     4164             LJMP    ?C0139
                    4165     ;       {
                    4166                             ; SOURCE LINE # 544
                    4167     ;               for (i = 0; i<8; i++)
                    4168                             ; SOURCE LINE # 545
001B E4             4169             CLR     A
001C 900000   F     4170             MOV     DPTR,#i?2392
001F F0             4171             MOVX    @DPTR,A
0020 A3             4172             INC     DPTR
0021 F0             4173             MOVX    @DPTR,A
0022                4174     ?C0141:
0022 900000   F     4175             MOV     DPTR,#i?2392
A51 MACRO ASSEMBLER  TEXT1                                                                01/10/2019 19:42:26 PAGE    65

0025 E0             4176             MOVX    A,@DPTR
0026 FA             4177             MOV     R2,A
0027 A3             4178             INC     DPTR
0028 E0             4179             MOVX    A,@DPTR
0029 FB             4180             MOV     R3,A
002A C3             4181             CLR     C
002B 9408           4182             SUBB    A,#08H
002D EA             4183             MOV     A,R2
002E 6480           4184             XRL     A,#080H
0030 9480           4185             SUBB    A,#080H
0032 4003           4186             JC      $ + 5H
0034 020000   F     4187             LJMP    ?C0140
                    4188     ;               {
                    4189                             ; SOURCE LINE # 546
                    4190     ;                       SentPixelColor(56 + i, Color(0, i + k * 64 / (N), 0));           //
                             
                    4191                             ; SOURCE LINE # 547
0037 A3             4192             INC     DPTR
0038 E0             4193             MOVX    A,@DPTR
0039 FE             4194             MOV     R6,A
003A A3             4195             INC     DPTR
003B E0             4196             MOVX    A,@DPTR
003C 7806           4197             MOV     R0,#06H
003E                4198     ?C0331:
003E C3             4199             CLR     C
003F 33             4200             RLC     A
0040 CE             4201             XCH     A,R6
0041 33             4202             RLC     A
0042 CE             4203             XCH     A,R6
0043 D8F9           4204             DJNZ    R0,?C0331
0045 FF             4205             MOV     R7,A
0046 7C00           4206             MOV     R4,#00H
0048 7D05           4207             MOV     R5,#05H
004A 120000   F     4208             LCALL   ?C?SIDIV
004D EB             4209             MOV     A,R3
004E 2F             4210             ADD     A,R7
004F FD             4211             MOV     R5,A
0050 E4             4212             CLR     A
0051 FB             4213             MOV     R3,A
0052 FF             4214             MOV     R7,A
0053 120000   F     4215             LCALL   _Color
0056 900000   F     4216             MOV     DPTR,#?_SentPixelColor?BYTE+01H
0059 120000   F     4217             LCALL   ?C?LSTXDATA
005C 900000   F     4218             MOV     DPTR,#i?2392
005F A3             4219             INC     DPTR
0060 E0             4220             MOVX    A,@DPTR
0061 2438           4221             ADD     A,#038H
0063 FF             4222             MOV     R7,A
0064 120000   F     4223             LCALL   _SentPixelColor
                    4224     ;                       SentPixelColor((7 - i) * 8, Color(0, i + k * 64 / (N), 0));      //
                             
                    4225                             ; SOURCE LINE # 548
0067 900000   F     4226             MOV     DPTR,#k?2393
006A E0             4227             MOVX    A,@DPTR
006B FE             4228             MOV     R6,A
006C A3             4229             INC     DPTR
006D E0             4230             MOVX    A,@DPTR
006E 7806           4231             MOV     R0,#06H
0070                4232     ?C0332:
0070 C3             4233             CLR     C
0071 33             4234             RLC     A
0072 CE             4235             XCH     A,R6
0073 33             4236             RLC     A
0074 CE             4237             XCH     A,R6
0075 D8F9           4238             DJNZ    R0,?C0332
0077 FF             4239             MOV     R7,A
A51 MACRO ASSEMBLER  TEXT1                                                                01/10/2019 19:42:26 PAGE    66

0078 7C00           4240             MOV     R4,#00H
007A 7D05           4241             MOV     R5,#05H
007C 120000   F     4242             LCALL   ?C?SIDIV
007F 900000   F     4243             MOV     DPTR,#i?2392
0082 A3             4244             INC     DPTR
0083 E0             4245             MOVX    A,@DPTR
0084 2F             4246             ADD     A,R7
0085 FD             4247             MOV     R5,A
0086 E4             4248             CLR     A
0087 FB             4249             MOV     R3,A
0088 FF             4250             MOV     R7,A
0089 120000   F     4251             LCALL   _Color
008C 900000   F     4252             MOV     DPTR,#?_SentPixelColor?BYTE+01H
008F 120000   F     4253             LCALL   ?C?LSTXDATA
0092 900000   F     4254             MOV     DPTR,#i?2392
0095 A3             4255             INC     DPTR
0096 E0             4256             MOVX    A,@DPTR
0097 FF             4257             MOV     R7,A
0098 C3             4258             CLR     C
0099 7407           4259             MOV     A,#07H
009B 9F             4260             SUBB    A,R7
009C 75F008         4261             MOV     B,#08H
009F A4             4262             MUL     AB
00A0 FF             4263             MOV     R7,A
00A1 120000   F     4264             LCALL   _SentPixelColor
                    4265     ;               }
                    4266                             ; SOURCE LINE # 549
00A4 900000   F     4267             MOV     DPTR,#i?2392+01H
00A7 E0             4268             MOVX    A,@DPTR
00A8 04             4269             INC     A
00A9 F0             4270             MOVX    @DPTR,A
00AA 6003           4271             JZ      $ + 5H
00AC 020000   F     4272             LJMP    ?C0141
00AF 900000   F     4273             MOV     DPTR,#i?2392
00B2 E0             4274             MOVX    A,@DPTR
00B3 04             4275             INC     A
00B4 F0             4276             MOVX    @DPTR,A
00B5                4277     ?C0333:
00B5 020000   F     4278             LJMP    ?C0141
                    4279     ;       }
                    4280                             ; SOURCE LINE # 550
00B8                4281     ?C0140:
00B8 900000   F     4282             MOV     DPTR,#k?2393+01H
00BB E0             4283             MOVX    A,@DPTR
00BC 2408           4284             ADD     A,#08H
00BE F0             4285             MOVX    @DPTR,A
00BF 900000   F     4286             MOV     DPTR,#k?2393
00C2 E0             4287             MOVX    A,@DPTR
00C3 3400           4288             ADDC    A,#00H
00C5 F0             4289             MOVX    @DPTR,A
00C6 020000   F     4290             LJMP    ?C0138
00C9                4291     ?C0139:
                    4292     ;       for (i = 0; i<8; i++)             //clear all
                    4293                             ; SOURCE LINE # 551
00C9 E4             4294             CLR     A
00CA 900000   F     4295             MOV     DPTR,#i?2392
00CD F0             4296             MOVX    @DPTR,A
00CE A3             4297             INC     DPTR
00CF F0             4298             MOVX    @DPTR,A
00D0                4299     ?C0144:
00D0 900000   F     4300             MOV     DPTR,#i?2392
00D3 E0             4301             MOVX    A,@DPTR
00D4 FE             4302             MOV     R6,A
00D5 A3             4303             INC     DPTR
00D6 E0             4304             MOVX    A,@DPTR
00D7 FF             4305             MOV     R7,A
A51 MACRO ASSEMBLER  TEXT1                                                                01/10/2019 19:42:26 PAGE    67

00D8 C3             4306             CLR     C
00D9 9408           4307             SUBB    A,#08H
00DB EE             4308             MOV     A,R6
00DC 6480           4309             XRL     A,#080H
00DE 9480           4310             SUBB    A,#080H
00E0 5045           4311             JNC     ?C0147
                    4312     ;       {
                    4313                             ; SOURCE LINE # 552
                    4314     ;               SentPixelColor(56 + i, 0);
                    4315                             ; SOURCE LINE # 553
00E2 EF             4316             MOV     A,R7
00E3 2438           4317             ADD     A,#038H
00E5 FF             4318             MOV     R7,A
00E6 C007           4319             PUSH    AR7
00E8 900000   F     4320             MOV     DPTR,#?_SentPixelColor?BYTE+01H
00EB 120000   F     4321             LCALL   ?C?LSTKXDATA
00EE 00             4322             DB      00H
00EF 00             4323             DB      00H
00F0 00             4324             DB      00H
00F1 00             4325             DB      00H
00F2 D007           4326             POP     AR7
00F4 120000   F     4327             LCALL   _SentPixelColor
                    4328     ;               SentPixelColor((7 - i) * 8, 0);
                    4329                             ; SOURCE LINE # 554
00F7 900000   F     4330             MOV     DPTR,#i?2392
00FA A3             4331             INC     DPTR
00FB E0             4332             MOVX    A,@DPTR
00FC FF             4333             MOV     R7,A
00FD C3             4334             CLR     C
00FE 7407           4335             MOV     A,#07H
0100 9F             4336             SUBB    A,R7
0101 75F008         4337             MOV     B,#08H
0104 A4             4338             MUL     AB
0105 FF             4339             MOV     R7,A
0106 C007           4340             PUSH    AR7
0108 900000   F     4341             MOV     DPTR,#?_SentPixelColor?BYTE+01H
010B 120000   F     4342             LCALL   ?C?LSTKXDATA
010E 00             4343             DB      00H
010F 00             4344             DB      00H
0110 00             4345             DB      00H
0111 00             4346             DB      00H
0112 D007           4347             POP     AR7
0114 120000   F     4348             LCALL   _SentPixelColor
                    4349     ;       }
                    4350                             ; SOURCE LINE # 555
0117 900000   F     4351             MOV     DPTR,#i?2392+01H
011A E0             4352             MOVX    A,@DPTR
011B 04             4353             INC     A
011C F0             4354             MOVX    @DPTR,A
011D 70B1           4355             JNZ     ?C0144
011F 900000   F     4356             MOV     DPTR,#i?2392
0122 E0             4357             MOVX    A,@DPTR
0123 04             4358             INC     A
0124 F0             4359             MOVX    @DPTR,A
0125                4360     ?C0334:
0125 80A9           4361             SJMP    ?C0144
                    4362     ; }
                    4363                             ; SOURCE LINE # 556
0127                4364     ?C0147:
0127 22             4365             RET     
                    4366     ; END OF LightEffect8_1
                    4367     
                    4368     ; void LightEffect8_8(void)              //
                    4369     
----                4370             RSEG  ?PR?LightEffect8_8?TEXT1
0000                4371     LightEffect8_8:
A51 MACRO ASSEMBLER  TEXT1                                                                01/10/2019 19:42:26 PAGE    68

                    4372             USING   0
                    4373                             ; SOURCE LINE # 557
                    4374     ; {
                    4375                             ; SOURCE LINE # 558
                    4376     ;       int i, k;
                    4377     ;       for (k = 0; k<8 * N; k = k + 8)
                    4378                             ; SOURCE LINE # 560
0000 E4             4379             CLR     A
0001 900000   F     4380             MOV     DPTR,#k?2495
0004 F0             4381             MOVX    @DPTR,A
0005 A3             4382             INC     DPTR
0006 F0             4383             MOVX    @DPTR,A
0007                4384     ?C0148:
0007 C3             4385             CLR     C
0008 900000   F     4386             MOV     DPTR,#k?2495+01H
000B E0             4387             MOVX    A,@DPTR
000C 9428           4388             SUBB    A,#028H
000E 900000   F     4389             MOV     DPTR,#k?2495
0011 E0             4390             MOVX    A,@DPTR
0012 6480           4391             XRL     A,#080H
0014 9480           4392             SUBB    A,#080H
0016 4003           4393             JC      $ + 5H
0018 020000   F     4394             LJMP    ?C0149
                    4395     ;       {
                    4396                             ; SOURCE LINE # 561
                    4397     ;               for (i = 0; i<8; i++)
                    4398                             ; SOURCE LINE # 562
001B E4             4399             CLR     A
001C 900000   F     4400             MOV     DPTR,#i?2494
001F F0             4401             MOVX    @DPTR,A
0020 A3             4402             INC     DPTR
0021 F0             4403             MOVX    @DPTR,A
0022                4404     ?C0151:
                    4405     ;               {
                    4406                             ; SOURCE LINE # 563
                    4407     ;                       SentPixelColor(63 - i, Color(i + k * 64 / (N), 0, i + k * 64 / (N))
                             );            //       
                    4408                             ; SOURCE LINE # 564
0022 900000   F     4409             MOV     DPTR,#k?2495
0025 E0             4410             MOVX    A,@DPTR
0026 FE             4411             MOV     R6,A
0027 A3             4412             INC     DPTR
0028 E0             4413             MOVX    A,@DPTR
0029 7806           4414             MOV     R0,#06H
002B                4415     ?C0335:
002B C3             4416             CLR     C
002C 33             4417             RLC     A
002D CE             4418             XCH     A,R6
002E 33             4419             RLC     A
002F CE             4420             XCH     A,R6
0030 D8F9           4421             DJNZ    R0,?C0335
0032 120000   F     4422             LCALL   L?0421
0035 900000   F     4423             MOV     DPTR,#?_SentPixelColor?BYTE+01H
0038 120000   F     4424             LCALL   ?C?LSTXDATA
003B 900000   F     4425             MOV     DPTR,#i?2494
003E A3             4426             INC     DPTR
003F E0             4427             MOVX    A,@DPTR
0040 FF             4428             MOV     R7,A
0041 C3             4429             CLR     C
0042 743F           4430             MOV     A,#03FH
0044 9F             4431             SUBB    A,R7
0045 FF             4432             MOV     R7,A
0046 120000   F     4433             LCALL   _SentPixelColor
                    4434     ;                       SentPixelColor((7 - i) * 8 + 7, Color(i + k * 64 / (N), 0, i + k * 
                             64 / (N)));   //      
                    4435                             ; SOURCE LINE # 565
A51 MACRO ASSEMBLER  TEXT1                                                                01/10/2019 19:42:26 PAGE    69

0049 900000   F     4436             MOV     DPTR,#k?2495
004C E0             4437             MOVX    A,@DPTR
004D FE             4438             MOV     R6,A
004E A3             4439             INC     DPTR
004F E0             4440             MOVX    A,@DPTR
0050 7806           4441             MOV     R0,#06H
0052                4442     ?C0336:
0052 C3             4443             CLR     C
0053 33             4444             RLC     A
0054 CE             4445             XCH     A,R6
0055 33             4446             RLC     A
0056 CE             4447             XCH     A,R6
0057 D8F9           4448             DJNZ    R0,?C0336
0059 120000   F     4449             LCALL   L?0421
005C 900000   F     4450             MOV     DPTR,#?_SentPixelColor?BYTE+01H
005F 120000   F     4451             LCALL   ?C?LSTXDATA
0062 900000   F     4452             MOV     DPTR,#i?2494
0065 A3             4453             INC     DPTR
0066 E0             4454             MOVX    A,@DPTR
0067 F4             4455             CPL     A
0068 04             4456             INC     A
0069 75F008         4457             MOV     B,#08H
006C A4             4458             MUL     AB
006D 243F           4459             ADD     A,#03FH
006F FF             4460             MOV     R7,A
0070 120000   F     4461             LCALL   _SentPixelColor
                    4462     ;               }
                    4463                             ; SOURCE LINE # 566
0073 900000   F     4464             MOV     DPTR,#i?2494+01H
0076 E0             4465             MOVX    A,@DPTR
0077 04             4466             INC     A
0078 F0             4467             MOVX    @DPTR,A
0079 7006           4468             JNZ     ?C0337
007B 900000   F     4469             MOV     DPTR,#i?2494
007E E0             4470             MOVX    A,@DPTR
007F 04             4471             INC     A
0080 F0             4472             MOVX    @DPTR,A
0081                4473     ?C0337:
0081 C3             4474             CLR     C
0082 900000   F     4475             MOV     DPTR,#i?2494+01H
0085 E0             4476             MOVX    A,@DPTR
0086 9408           4477             SUBB    A,#08H
0088 900000   F     4478             MOV     DPTR,#i?2494
008B E0             4479             MOVX    A,@DPTR
008C 6480           4480             XRL     A,#080H
008E 9480           4481             SUBB    A,#080H
0090 4090           4482             JC      ?C0151
                    4483     ;       }
                    4484                             ; SOURCE LINE # 567
0092                4485     ?C0150:
0092 900000   F     4486             MOV     DPTR,#k?2495+01H
0095 E0             4487             MOVX    A,@DPTR
0096 2408           4488             ADD     A,#08H
0098 F0             4489             MOVX    @DPTR,A
0099 900000   F     4490             MOV     DPTR,#k?2495
009C E0             4491             MOVX    A,@DPTR
009D 3400           4492             ADDC    A,#00H
009F F0             4493             MOVX    @DPTR,A
00A0 020000   F     4494             LJMP    ?C0148
00A3                4495     ?C0149:
                    4496     ;       for (i = 0; i<8; i++)             //clear all
                    4497                             ; SOURCE LINE # 568
00A3 E4             4498             CLR     A
00A4 900000   F     4499             MOV     DPTR,#i?2494
00A7 F0             4500             MOVX    @DPTR,A
00A8 A3             4501             INC     DPTR
A51 MACRO ASSEMBLER  TEXT1                                                                01/10/2019 19:42:26 PAGE    70

00A9 F0             4502             MOVX    @DPTR,A
00AA                4503     ?C0154:
00AA 900000   F     4504             MOV     DPTR,#i?2494
00AD E0             4505             MOVX    A,@DPTR
00AE FE             4506             MOV     R6,A
00AF A3             4507             INC     DPTR
00B0 E0             4508             MOVX    A,@DPTR
00B1 FF             4509             MOV     R7,A
00B2 C3             4510             CLR     C
00B3 9408           4511             SUBB    A,#08H
00B5 EE             4512             MOV     A,R6
00B6 6480           4513             XRL     A,#080H
00B8 9480           4514             SUBB    A,#080H
00BA 5045           4515             JNC     ?C0157
                    4516     ;       {
                    4517                             ; SOURCE LINE # 569
                    4518     ;               SentPixelColor(63 - i, 0);
                    4519                             ; SOURCE LINE # 570
00BC C3             4520             CLR     C
00BD 743F           4521             MOV     A,#03FH
00BF 9F             4522             SUBB    A,R7
00C0 FF             4523             MOV     R7,A
00C1 C007           4524             PUSH    AR7
00C3 900000   F     4525             MOV     DPTR,#?_SentPixelColor?BYTE+01H
00C6 120000   F     4526             LCALL   ?C?LSTKXDATA
00C9 00             4527             DB      00H
00CA 00             4528             DB      00H
00CB 00             4529             DB      00H
00CC 00             4530             DB      00H
00CD D007           4531             POP     AR7
00CF 120000   F     4532             LCALL   _SentPixelColor
                    4533     ;               SentPixelColor((7 - i) * 8 + 7, 0);
                    4534                             ; SOURCE LINE # 571
00D2 900000   F     4535             MOV     DPTR,#i?2494
00D5 A3             4536             INC     DPTR
00D6 E0             4537             MOVX    A,@DPTR
00D7 F4             4538             CPL     A
00D8 04             4539             INC     A
00D9 75F008         4540             MOV     B,#08H
00DC A4             4541             MUL     AB
00DD 243F           4542             ADD     A,#03FH
00DF FF             4543             MOV     R7,A
00E0 C007           4544             PUSH    AR7
00E2 900000   F     4545             MOV     DPTR,#?_SentPixelColor?BYTE+01H
00E5 120000   F     4546             LCALL   ?C?LSTKXDATA
00E8 00             4547             DB      00H
00E9 00             4548             DB      00H
00EA 00             4549             DB      00H
00EB 00             4550             DB      00H
00EC D007           4551             POP     AR7
00EE 120000   F     4552             LCALL   _SentPixelColor
                    4553     ;       }
                    4554                             ; SOURCE LINE # 572
00F1 900000   F     4555             MOV     DPTR,#i?2494+01H
00F4 E0             4556             MOVX    A,@DPTR
00F5 04             4557             INC     A
00F6 F0             4558             MOVX    @DPTR,A
00F7 7006           4559             JNZ     ?C0338
00F9 900000   F     4560             MOV     DPTR,#i?2494
00FC E0             4561             MOVX    A,@DPTR
00FD 04             4562             INC     A
00FE F0             4563             MOVX    @DPTR,A
00FF                4564     ?C0338:
00FF 80A9           4565             SJMP    ?C0154
                    4566     ; }
                    4567                             ; SOURCE LINE # 573
A51 MACRO ASSEMBLER  TEXT1                                                                01/10/2019 19:42:26 PAGE    71

0101                4568     ?C0157:
0101 22             4569             RET     
                    4570     ; END OF LightEffect8_8
                    4571     
                    4572     ; int GetNum()
                    4573     
----                4574             RSEG  ?PR?GetNum?TEXT1
0000                4575     GetNum:
                    4576             USING   0
                    4577                             ; SOURCE LINE # 574
                    4578     ;       {
                    4579                             ; SOURCE LINE # 575
                    4580     ;               return rand() % 7;
                    4581                             ; SOURCE LINE # 576
0000 120000   F     4582             LCALL   rand
0003 7C00           4583             MOV     R4,#00H
0005 7D07           4584             MOV     R5,#07H
0007 120000   F     4585             LCALL   ?C?SIDIV
000A AE04           4586             MOV     R6,AR4
000C AF05           4587             MOV     R7,AR5
                    4588     ;       }
                    4589                             ; SOURCE LINE # 577
000E                4590     ?C0158:
000E 22             4591             RET     
                    4592     ; END OF GetNum
                    4593     
                    4594     ; //=================================================================
                             =====================================
                    4595     ; void LightSunShineWithMusic(void)
                    4596     
----                4597             RSEG  ?PR?LightSunShineWithMusic?TEXT1
0000                4598     LightSunShineWithMusic:
                    4599             USING   0
                    4600                             ; SOURCE LINE # 579
                    4601     ; {
                    4602                             ; SOURCE LINE # 580
                    4603     ;       //                                             
                              
                    4604     ;       // R  255   255    255     251      128       116      0        219     14
                    4605     ;       // G  255    0     153     255      255       234      0         0      43
                    4606     ;       // B  255    0     0        66       0        254      255      219     143
                    4607     ;       //0-6
                    4608     ;       
                    4609     ; 
                    4610     ;       //0-7
                    4611     ;       int RandNumber;
                    4612     ;       int i, j;
                    4613     ;       unsigned int XuHao; //
                    4614     ;       for (i = 0; i < 8; i++)
                    4615                             ; SOURCE LINE # 592
0000 E4             4616             CLR     A
0001 900000   F     4617             MOV     DPTR,#i?2697
0004 F0             4618             MOVX    @DPTR,A
0005 A3             4619             INC     DPTR
0006 F0             4620             MOVX    @DPTR,A
0007                4621     ?C0159:
                    4622     ;       {
                    4623                             ; SOURCE LINE # 593
                    4624     ;               RandNumber = GetNum() + 2;
                    4625                             ; SOURCE LINE # 594
0007 120000   F     4626             LCALL   GetNum
000A EF             4627             MOV     A,R7
000B 2402           4628             ADD     A,#02H
000D FF             4629             MOV     R7,A
000E E4             4630             CLR     A
000F 3E             4631             ADDC    A,R6
A51 MACRO ASSEMBLER  TEXT1                                                                01/10/2019 19:42:26 PAGE    72

0010 900000   F     4632             MOV     DPTR,#RandNumber?2696
0013 F0             4633             MOVX    @DPTR,A
0014 A3             4634             INC     DPTR
0015 EF             4635             MOV     A,R7
0016 F0             4636             MOVX    @DPTR,A
                    4637     ;               for (j = 0; j < 8; j++)
                    4638                             ; SOURCE LINE # 595
0017 E4             4639             CLR     A
0018 900000   F     4640             MOV     DPTR,#j?2698
001B F0             4641             MOVX    @DPTR,A
001C A3             4642             INC     DPTR
001D F0             4643             MOVX    @DPTR,A
001E                4644     ?C0162:
001E 900000   F     4645             MOV     DPTR,#j?2698
0021 E0             4646             MOVX    A,@DPTR
0022 FE             4647             MOV     R6,A
0023 A3             4648             INC     DPTR
0024 E0             4649             MOVX    A,@DPTR
0025 FF             4650             MOV     R7,A
0026 C3             4651             CLR     C
0027 9408           4652             SUBB    A,#08H
0029 EE             4653             MOV     A,R6
002A 6480           4654             XRL     A,#080H
002C 9480           4655             SUBB    A,#080H
002E 4003           4656             JC      $ + 5H
0030 020000   F     4657             LJMP    ?C0161
                    4658     ;               {
                    4659                             ; SOURCE LINE # 596
                    4660     ;                       XuHao = (7 - j) * 8 + i;//
                    4661                             ; SOURCE LINE # 597
0033 C3             4662             CLR     C
0034 7407           4663             MOV     A,#07H
0036 9F             4664             SUBB    A,R7
0037 FF             4665             MOV     R7,A
0038 E4             4666             CLR     A
0039 9E             4667             SUBB    A,R6
003A FE             4668             MOV     R6,A
003B EF             4669             MOV     A,R7
003C 7803           4670             MOV     R0,#03H
003E                4671     ?C0339:
003E C3             4672             CLR     C
003F 33             4673             RLC     A
0040 CE             4674             XCH     A,R6
0041 33             4675             RLC     A
0042 CE             4676             XCH     A,R6
0043 D8F9           4677             DJNZ    R0,?C0339
0045 FF             4678             MOV     R7,A
0046 900000   F     4679             MOV     DPTR,#i?2697+01H
0049 E0             4680             MOVX    A,@DPTR
004A 2F             4681             ADD     A,R7
004B FF             4682             MOV     R7,A
004C 900000   F     4683             MOV     DPTR,#i?2697
004F E0             4684             MOVX    A,@DPTR
0050 3E             4685             ADDC    A,R6
0051 900000   F     4686             MOV     DPTR,#XuHao?2699
0054 F0             4687             MOVX    @DPTR,A
0055 A3             4688             INC     DPTR
0056 EF             4689             MOV     A,R7
0057 F0             4690             MOVX    @DPTR,A
                    4691     ;                       if (j = RandNumber - 1)//
                    4692                             ; SOURCE LINE # 598
0058 900000   F     4693             MOV     DPTR,#RandNumber?2696+01H
005B E0             4694             MOVX    A,@DPTR
005C 24FF           4695             ADD     A,#0FFH
005E FF             4696             MOV     R7,A
005F 900000   F     4697             MOV     DPTR,#RandNumber?2696
A51 MACRO ASSEMBLER  TEXT1                                                                01/10/2019 19:42:26 PAGE    73

0062 E0             4698             MOVX    A,@DPTR
0063 34FF           4699             ADDC    A,#0FFH
0065 FE             4700             MOV     R6,A
0066 900000   F     4701             MOV     DPTR,#j?2698
0069 F0             4702             MOVX    @DPTR,A
006A A3             4703             INC     DPTR
006B EF             4704             MOV     A,R7
006C F0             4705             MOVX    @DPTR,A
006D 4E             4706             ORL     A,R6
006E 6013           4707             JZ      ?C0165
                    4708     ;                       {
                    4709                             ; SOURCE LINE # 599
                    4710     ;                               SetPointColour(XuHao, 14, 43, 143);//
                    4711                             ; SOURCE LINE # 600
0070 A3             4712             INC     DPTR
0071 E0             4713             MOVX    A,@DPTR
0072 FE             4714             MOV     R6,A
0073 A3             4715             INC     DPTR
0074 E0             4716             MOVX    A,@DPTR
0075 FF             4717             MOV     R7,A
0076 900000   F     4718             MOV     DPTR,#?_SetPointColour?BYTE+04H
0079 748F           4719             MOV     A,#08FH
007B F0             4720             MOVX    @DPTR,A
007C 7B2B           4721             MOV     R3,#02BH
007E 7D0E           4722             MOV     R5,#0EH
                    4723     ;                       }
                    4724                             ; SOURCE LINE # 601
0080 020000   F     4725             LJMP    ?C0362
0083                4726     ?C0165:
                    4727     ;                       else
                    4728     ;                       {
                    4729                             ; SOURCE LINE # 603
                    4730     ;                               if (j >= RandNumber)
                    4731                             ; SOURCE LINE # 604
0083 900000   F     4732             MOV     DPTR,#RandNumber?2696
0086 E0             4733             MOVX    A,@DPTR
0087 FE             4734             MOV     R6,A
0088 A3             4735             INC     DPTR
0089 E0             4736             MOVX    A,@DPTR
008A FF             4737             MOV     R7,A
008B C3             4738             CLR     C
008C 900000   F     4739             MOV     DPTR,#j?2698+01H
008F E0             4740             MOVX    A,@DPTR
0090 9F             4741             SUBB    A,R7
0091 EE             4742             MOV     A,R6
0092 6480           4743             XRL     A,#080H
0094 F8             4744             MOV     R0,A
0095 900000   F     4745             MOV     DPTR,#j?2698
0098 E0             4746             MOVX    A,@DPTR
0099 6480           4747             XRL     A,#080H
009B 98             4748             SUBB    A,R0
009C 4013           4749             JC      ?C0167
                    4750     ;                               {
                    4751                             ; SOURCE LINE # 605
                    4752     ;                                       SetPointColour(XuHao, 255, 255, 255);//
                    4753                             ; SOURCE LINE # 606
009E 900000   F     4754             MOV     DPTR,#XuHao?2699
00A1 E0             4755             MOVX    A,@DPTR
00A2 FE             4756             MOV     R6,A
00A3 A3             4757             INC     DPTR
00A4 E0             4758             MOVX    A,@DPTR
00A5 FF             4759             MOV     R7,A
00A6 900000   F     4760             MOV     DPTR,#?_SetPointColour?BYTE+04H
00A9 74FF           4761             MOV     A,#0FFH
00AB F0             4762             MOVX    @DPTR,A
00AC FB             4763             MOV     R3,A
A51 MACRO ASSEMBLER  TEXT1                                                                01/10/2019 19:42:26 PAGE    74

00AD FD             4764             MOV     R5,A
00AE                4765     ?C0355:
                    4766     ; 
                    4767     ;                               }
                    4768                             ; SOURCE LINE # 608
00AE 020000   F     4769             LJMP    ?C0362
00B1                4770     ?C0167:
                    4771     ;                               else
                    4772     ;                               {
                    4773                             ; SOURCE LINE # 610
                    4774     ;                                       switch (j)
                    4775                             ; SOURCE LINE # 611
00B1 900000   F     4776             MOV     DPTR,#j?2698
00B4 E0             4777             MOVX    A,@DPTR
00B5 FE             4778             MOV     R6,A
00B6 A3             4779             INC     DPTR
00B7 E0             4780             MOVX    A,@DPTR
00B8 FF             4781             MOV     R7,A
00B9 EE             4782             MOV     A,R6
00BA 6003           4783             JZ      $ + 5H
00BC 020000   F     4784             LJMP    ?C0164
00BF EF             4785             MOV     A,R7
00C0 B40700         4786             CJNE    A,#07H,?C0340
00C3                4787     ?C0340:
00C3 4003           4788             JC      $ + 5H
00C5 020000   F     4789             LJMP    ?C0164
00C8 900000   F     4790             MOV     DPTR,#?C0341
00CB F8             4791             MOV     R0,A
00CC 28             4792             ADD     A,R0
00CD 28             4793             ADD     A,R0
00CE 73             4794             JMP     @A+DPTR
00CF                4795     ?C0341:
00CF 020000   F     4796             LJMP    ?C0170
00D2 020000   F     4797             LJMP    ?C0171
00D5 020000   F     4798             LJMP    ?C0172
00D8 020000   F     4799             LJMP    ?C0173
00DB 020000   F     4800             LJMP    ?C0174
00DE 020000   F     4801             LJMP    ?C0175
00E1 020000   F     4802             LJMP    ?C0176
                    4803     ;                                       {
                    4804                             ; SOURCE LINE # 612
                    4805     ;                                       case 0:SetPointColour(XuHao, 219, 0, 219); break;  
                              //
                    4806                             ; SOURCE LINE # 613
00E4                4807     ?C0170:
00E4 900000   F     4808             MOV     DPTR,#XuHao?2699
00E7 E0             4809             MOVX    A,@DPTR
00E8 FE             4810             MOV     R6,A
00E9 A3             4811             INC     DPTR
00EA E0             4812             MOVX    A,@DPTR
00EB FF             4813             MOV     R7,A
00EC 900000   F     4814             MOV     DPTR,#?_SetPointColour?BYTE+04H
00EF 74DB           4815             MOV     A,#0DBH
00F1 F0             4816             MOVX    @DPTR,A
00F2 E4             4817             CLR     A
00F3 FB             4818             MOV     R3,A
00F4 7DDB           4819             MOV     R5,#0DBH
00F6                4820     ?C0356:
00F6 8071           4821             SJMP    ?C0362
                    4822     ;                                       case 1:SetPointColour(XuHao, 0, 0, 255); break;    
                              //
                    4823                             ; SOURCE LINE # 614
00F8                4824     ?C0171:
00F8 900000   F     4825             MOV     DPTR,#XuHao?2699
00FB E0             4826             MOVX    A,@DPTR
00FC FE             4827             MOV     R6,A
A51 MACRO ASSEMBLER  TEXT1                                                                01/10/2019 19:42:26 PAGE    75

00FD A3             4828             INC     DPTR
00FE E0             4829             MOVX    A,@DPTR
00FF FF             4830             MOV     R7,A
0100 900000   F     4831             MOV     DPTR,#?_SetPointColour?BYTE+04H
0103 74FF           4832             MOV     A,#0FFH
0105 F0             4833             MOVX    @DPTR,A
0106 E4             4834             CLR     A
0107 FB             4835             MOV     R3,A
0108 FD             4836             MOV     R5,A
0109                4837     ?C0357:
0109 805E           4838             SJMP    ?C0362
                    4839     ;                                       case 2:SetPointColour(XuHao, 116, 234, 254); break;
                              //
                    4840                             ; SOURCE LINE # 615
010B                4841     ?C0172:
010B 900000   F     4842             MOV     DPTR,#XuHao?2699
010E E0             4843             MOVX    A,@DPTR
010F FE             4844             MOV     R6,A
0110 A3             4845             INC     DPTR
0111 E0             4846             MOVX    A,@DPTR
0112 FF             4847             MOV     R7,A
0113 900000   F     4848             MOV     DPTR,#?_SetPointColour?BYTE+04H
0116 74FE           4849             MOV     A,#0FEH
0118 F0             4850             MOVX    @DPTR,A
0119 7BEA           4851             MOV     R3,#0EAH
011B 7D74           4852             MOV     R5,#074H
011D                4853     ?C0358:
011D 804A           4854             SJMP    ?C0362
                    4855     ;                                       case 3:SetPointColour(XuHao, 128, 255, 0); break;  
                              //
                    4856                             ; SOURCE LINE # 616
011F                4857     ?C0173:
011F 900000   F     4858             MOV     DPTR,#XuHao?2699
0122 E0             4859             MOVX    A,@DPTR
0123 FE             4860             MOV     R6,A
0124 A3             4861             INC     DPTR
0125 E0             4862             MOVX    A,@DPTR
0126 FF             4863             MOV     R7,A
0127 E4             4864             CLR     A
0128 900000   F     4865             MOV     DPTR,#?_SetPointColour?BYTE+04H
012B F0             4866             MOVX    @DPTR,A
012C 7BFF           4867             MOV     R3,#0FFH
012E 7D80           4868             MOV     R5,#080H
0130                4869     ?C0359:
0130 8037           4870             SJMP    ?C0362
                    4871     ;                                       case 4:SetPointColour(XuHao, 255, 153, 0); break;  
                              //
                    4872                             ; SOURCE LINE # 617
0132                4873     ?C0174:
0132 900000   F     4874             MOV     DPTR,#XuHao?2699
0135 E0             4875             MOVX    A,@DPTR
0136 FE             4876             MOV     R6,A
0137 A3             4877             INC     DPTR
0138 E0             4878             MOVX    A,@DPTR
0139 FF             4879             MOV     R7,A
013A E4             4880             CLR     A
013B 900000   F     4881             MOV     DPTR,#?_SetPointColour?BYTE+04H
013E F0             4882             MOVX    @DPTR,A
013F 7B99           4883             MOV     R3,#099H
0141 7DFF           4884             MOV     R5,#0FFH
0143                4885     ?C0360:
0143 8024           4886             SJMP    ?C0362
                    4887     ;                                       case 5:SetPointColour(XuHao, 251, 255, 66); break; 
                              //
                    4888                             ; SOURCE LINE # 618
0145                4889     ?C0175:
A51 MACRO ASSEMBLER  TEXT1                                                                01/10/2019 19:42:26 PAGE    76

0145 900000   F     4890             MOV     DPTR,#XuHao?2699
0148 E0             4891             MOVX    A,@DPTR
0149 FE             4892             MOV     R6,A
014A A3             4893             INC     DPTR
014B E0             4894             MOVX    A,@DPTR
014C FF             4895             MOV     R7,A
014D 900000   F     4896             MOV     DPTR,#?_SetPointColour?BYTE+04H
0150 7442           4897             MOV     A,#042H
0152 F0             4898             MOVX    @DPTR,A
0153 7BFF           4899             MOV     R3,#0FFH
0155 7DFB           4900             MOV     R5,#0FBH
0157                4901     ?C0361:
0157 8010           4902             SJMP    ?C0362
                    4903     ;                                       case 6:SetPointColour(XuHao, 255, 0, 0); break;    
                              //
                    4904                             ; SOURCE LINE # 619
0159                4905     ?C0176:
0159 900000   F     4906             MOV     DPTR,#XuHao?2699
015C E0             4907             MOVX    A,@DPTR
015D FE             4908             MOV     R6,A
015E A3             4909             INC     DPTR
015F E0             4910             MOVX    A,@DPTR
0160 FF             4911             MOV     R7,A
0161 E4             4912             CLR     A
0162 900000   F     4913             MOV     DPTR,#?_SetPointColour?BYTE+04H
0165 F0             4914             MOVX    @DPTR,A
0166 FB             4915             MOV     R3,A
0167 7DFF           4916             MOV     R5,#0FFH
0169                4917     ?C0362:
0169 120000   F     4918             LCALL   _SetPointColour
                    4919     ;                                       default:
                    4920                             ; SOURCE LINE # 620
                    4921     ;                                               break;
                    4922                             ; SOURCE LINE # 621
                    4923     ;                                       }
                    4924                             ; SOURCE LINE # 622
                    4925     ;                               }
                    4926                             ; SOURCE LINE # 623
                    4927     ;                       }
                    4928                             ; SOURCE LINE # 624
                    4929     ;               }
                    4930                             ; SOURCE LINE # 625
016C                4931     ?C0164:
016C 900000   F     4932             MOV     DPTR,#j?2698+01H
016F E0             4933             MOVX    A,@DPTR
0170 04             4934             INC     A
0171 F0             4935             MOVX    @DPTR,A
0172 7006           4936             JNZ     ?C0342
0174 900000   F     4937             MOV     DPTR,#j?2698
0177 E0             4938             MOVX    A,@DPTR
0178 04             4939             INC     A
0179 F0             4940             MOVX    @DPTR,A
017A                4941     ?C0342:
017A 020000   F     4942             LJMP    ?C0162
                    4943     ;       }
                    4944                             ; SOURCE LINE # 626
017D                4945     ?C0161:
017D 900000   F     4946             MOV     DPTR,#i?2697+01H
0180 E0             4947             MOVX    A,@DPTR
0181 04             4948             INC     A
0182 F0             4949             MOVX    @DPTR,A
0183 7006           4950             JNZ     ?C0343
0185 900000   F     4951             MOV     DPTR,#i?2697
0188 E0             4952             MOVX    A,@DPTR
0189 04             4953             INC     A
018A F0             4954             MOVX    @DPTR,A
A51 MACRO ASSEMBLER  TEXT1                                                                01/10/2019 19:42:26 PAGE    77

018B                4955     ?C0343:
018B C3             4956             CLR     C
018C 900000   F     4957             MOV     DPTR,#i?2697+01H
018F E0             4958             MOVX    A,@DPTR
0190 9408           4959             SUBB    A,#08H
0192 900000   F     4960             MOV     DPTR,#i?2697
0195 E0             4961             MOVX    A,@DPTR
0196 6480           4962             XRL     A,#080H
0198 9480           4963             SUBB    A,#080H
019A 5003           4964             JNC     $ + 5H
019C 020000   F     4965             LJMP    ?C0159
                    4966     ; }
                    4967                             ; SOURCE LINE # 627
019F                4968     ?C0178:
019F 22             4969             RET     
                    4970     ; END OF LightSunShineWithMusic
                    4971     
                    4972     ; void LightEffect2(unsigned char time, unsigned int fre)
                    4973     
----                4974             RSEG  ?PR?_LightEffect2?TEXT1
0000                4975     _LightEffect2:
                    4976             USING   0
                    4977                             ; SOURCE LINE # 628
0000 900000   F     4978             MOV     DPTR,#fre?27101
0003 EC             4979             MOV     A,R4
0004 F0             4980             MOVX    @DPTR,A
0005 A3             4981             INC     DPTR
0006 ED             4982             MOV     A,R5
0007 F0             4983             MOVX    @DPTR,A
                    4984     ;---- Variable 'time?27100' assigned to Register 'R7' ----
                    4985     ; {
                    4986                             ; SOURCE LINE # 629
                    4987     ;       uint i;
                    4988     ;       double pertime = (double)time / fre;
                    4989                             ; SOURCE LINE # 631
0008 AC07           4990             MOV     R4,AR7
000A E4             4991             CLR     A
000B 120000   F     4992             LCALL   ?C?FCASTC
000E C004           4993             PUSH    AR4
0010 C005           4994             PUSH    AR5
0012 C006           4995             PUSH    AR6
0014 C007           4996             PUSH    AR7
0016 900000   F     4997             MOV     DPTR,#fre?27101
0019 E0             4998             MOVX    A,@DPTR
001A FC             4999             MOV     R4,A
001B A3             5000             INC     DPTR
001C E0             5001             MOVX    A,@DPTR
001D FD             5002             MOV     R5,A
001E E4             5003             CLR     A
001F 120000   F     5004             LCALL   ?C?FCASTI
0022 A804           5005             MOV     R0,AR4
0024 A905           5006             MOV     R1,AR5
0026 AA06           5007             MOV     R2,AR6
0028 AB07           5008             MOV     R3,AR7
002A D007           5009             POP     AR7
002C D006           5010             POP     AR6
002E D005           5011             POP     AR5
0030 D004           5012             POP     AR4
0032 120000   F     5013             LCALL   ?C?FPDIV
0035 900000   F     5014             MOV     DPTR,#pertime?27103
0038 120000   F     5015             LCALL   ?C?LSTXDATA
                    5016     ;       for (i = 0; i < fre; i++)
                    5017                             ; SOURCE LINE # 632
003B E4             5018             CLR     A
003C 900000   F     5019             MOV     DPTR,#i?27102
003F F0             5020             MOVX    @DPTR,A
A51 MACRO ASSEMBLER  TEXT1                                                                01/10/2019 19:42:26 PAGE    78

0040 A3             5021             INC     DPTR
0041 F0             5022             MOVX    @DPTR,A
0042                5023     ?C0179:
0042 900000   F     5024             MOV     DPTR,#fre?27101
0045 E0             5025             MOVX    A,@DPTR
0046 FE             5026             MOV     R6,A
0047 A3             5027             INC     DPTR
0048 E0             5028             MOVX    A,@DPTR
0049 FF             5029             MOV     R7,A
004A C3             5030             CLR     C
004B 900000   F     5031             MOV     DPTR,#i?27102+01H
004E E0             5032             MOVX    A,@DPTR
004F 9F             5033             SUBB    A,R7
0050 900000   F     5034             MOV     DPTR,#i?27102
0053 E0             5035             MOVX    A,@DPTR
0054 9E             5036             SUBB    A,R6
0055 5027           5037             JNC     ?C0182
                    5038     ;       {
                    5039                             ; SOURCE LINE # 633
                    5040     ;               LightSunShineWithMusic();
                    5041                             ; SOURCE LINE # 634
0057 120000   F     5042             LCALL   LightSunShineWithMusic
                    5043     ;               Delay1ms(pertime);
                    5044                             ; SOURCE LINE # 635
005A 900000   F     5045             MOV     DPTR,#pertime?27103
005D E0             5046             MOVX    A,@DPTR
005E FC             5047             MOV     R4,A
005F A3             5048             INC     DPTR
0060 E0             5049             MOVX    A,@DPTR
0061 FD             5050             MOV     R5,A
0062 A3             5051             INC     DPTR
0063 E0             5052             MOVX    A,@DPTR
0064 FE             5053             MOV     R6,A
0065 A3             5054             INC     DPTR
0066 E0             5055             MOVX    A,@DPTR
0067 FF             5056             MOV     R7,A
0068 120000   F     5057             LCALL   ?C?CASTF
006B 120000   F     5058             LCALL   _Delay1ms
                    5059     ;       }
                    5060                             ; SOURCE LINE # 636
006E 900000   F     5061             MOV     DPTR,#i?27102+01H
0071 E0             5062             MOVX    A,@DPTR
0072 04             5063             INC     A
0073 F0             5064             MOVX    @DPTR,A
0074 70CC           5065             JNZ     ?C0179
0076 900000   F     5066             MOV     DPTR,#i?27102
0079 E0             5067             MOVX    A,@DPTR
007A 04             5068             INC     A
007B F0             5069             MOVX    @DPTR,A
007C                5070     ?C0344:
007C 80C4           5071             SJMP    ?C0179
                    5072     ; }
                    5073                             ; SOURCE LINE # 637
007E                5074     ?C0182:
007E 22             5075             RET     
                    5076     ; END OF _LightEffect2
                    5077     
                    5078     ; void LightEffect1(unsigned char time, unsigned int j)
                    5079     
----                5080             RSEG  ?PR?_LightEffect1?TEXT1
0000                5081     _LightEffect1:
                    5082             USING   0
                    5083                             ; SOURCE LINE # 638
0000 900000   F     5084             MOV     DPTR,#time?28104
0003 EF             5085             MOV     A,R7
0004 F0             5086             MOVX    @DPTR,A
A51 MACRO ASSEMBLER  TEXT1                                                                01/10/2019 19:42:26 PAGE    79

0005 A3             5087             INC     DPTR
0006 EC             5088             MOV     A,R4
0007 F0             5089             MOVX    @DPTR,A
0008 A3             5090             INC     DPTR
0009 ED             5091             MOV     A,R5
000A F0             5092             MOVX    @DPTR,A
                    5093     ; {
                    5094                             ; SOURCE LINE # 639
                    5095     ;       int i;
                    5096     ; unsigned char  R[6][64] = { 
                    5097                             ; SOURCE LINE # 641
000B 7800     F     5098             MOV     R0,#LOW (R?28107)
000D 7C00     F     5099             MOV     R4,#HIGH (R?28107)
000F 7D01           5100             MOV     R5,#01H
0011 7BFF           5101             MOV     R3,#0FFH
0013 7A00     F     5102             MOV     R2,#HIGH (_?ix1000)
0015 7900     F     5103             MOV     R1,#LOW (_?ix1000)
0017 7E01           5104             MOV     R6,#01H
0019 7F80           5105             MOV     R7,#080H
001B 120000   F     5106             LCALL   ?C?COPY
                    5107     ;       {
                    5108     ;       000,000,000,000,000,000,000,000,
                    5109     ;       000,255,255,000,000,255,255,000,
                    5110     ;       255,255,255,255,255,255,255,255,
                    5111     ;       255,255,255,255,255,255,255,255,
                    5112     ;       255,255,255,255,255,255,255,255,
                    5113     ;       000,255,255,255,255,255,000,000,
                    5114     ;       000,000,255,255,255,255,000,000,
                    5115     ;       000,000,000,255,255,000,000,000},
                    5116     ; 
                    5117     ;       {000,000,000,000,000,000,000,000,
                    5118     ;       000,000,000,000,000,000,000,000,
                    5119     ;       000,000,255,000,000,255,000,000,
                    5120     ;       000,255,253,255,255,253,255,000,
                    5121     ;       000,255,253,253,253,253,255,000,
                    5122     ;       000,000,255,253,253,255,000,000,
                    5123     ;       000,000,000,255,255,000,000,000,
                    5124     ;       000,000,000,000,000,000,000,000},
                    5125     ;       
                    5126     ;       {000,000,000,000,000,000,000,000,
                    5127     ;       000,000,000,053,000,000,000,000,
                    5128     ;       000,000,053,060,053,000,000,000,
                    5129     ;       000,053, 28,060,060,053,000,000,
                    5130     ;       000,000,053, 28,060,060,053,000,
                    5131     ;       000,000,000,053,28,053,000,000,
                    5132     ;       000,000,000,000,053,000,000,000,
                    5133     ;       000,000,000,000,000,000,000,000},
                    5134     ; 
                    5135     ;       {000,000,000,003,003,000,000,000,
                    5136     ;       000,000,001,001,001,001,000,000,
                    5137     ;       000,197,197,197,197,197,197,000,
                    5138     ;       254,254,254,254,254,254,254,254,
                    5139     ;       000,197,197,197,197,197,197,000,
                    5140     ;       000,000,001,001,001,001,000,000,
                    5141     ;       000,000,000,003,003,000,000,000,
                    5142     ;       000,000,000,000,000,000,000,000},
                    5143     ; 
                    5144     ;       {255,255,255,255,255,255,255,255,
                    5145     ;       255,255,255,255,255,255,255,255,
                    5146     ;       255,255,000,000,000,000,255,255,
                    5147     ;       255,255,000,000,000,000,255,255,
                    5148     ;       255,255,000,000,000,000,255,255,
                    5149     ;       255,255,000,000,000,000,255,255,
                    5150     ;       255,255,255,255,255,255,255,255,
                    5151     ;       255,255,255,255,255,255,255,255},
                    5152     ;       
A51 MACRO ASSEMBLER  TEXT1                                                                01/10/2019 19:42:26 PAGE    80

                    5153     ;       {000,000,000,000,000,000,000,000,
                    5154     ;       000,000,003,003,003,003,000,000,
                    5155     ;       000,003,242,233,233,221,003,000,
                    5156     ;       000,003,233,242,221,233,003,000,
                    5157     ;       000,003,233,221,242,233,003,000,
                    5158     ;       000,003,221,233,233,242,003,000,
                    5159     ;       000,000,003,003,003,003,000,000,
                    5160     ;       000,000,000,000,000,000,000,000} 
                    5161     ; };
                    5162     ; 
                    5163     ; 
                    5164     ; unsigned char G[6][64] = {
                    5165                             ; SOURCE LINE # 699
001E 7800     F     5166             MOV     R0,#LOW (G?28108)
0020 7C00     F     5167             MOV     R4,#HIGH (G?28108)
0022 7D01           5168             MOV     R5,#01H
0024 7BFF           5169             MOV     R3,#0FFH
0026 7A00     F     5170             MOV     R2,#HIGH (_?ix1001)
0028 7900     F     5171             MOV     R1,#LOW (_?ix1001)
002A 7E01           5172             MOV     R6,#01H
002C 7F80           5173             MOV     R7,#080H
002E 120000   F     5174             LCALL   ?C?COPY
                    5175     ;       {000,000,000,000,000,000,000,000,
                    5176     ;       000,000,000,000,000,000,000,000,
                    5177     ;       000,000,000,000,000,000,000,000,
                    5178     ;       000,000,128,000,000,128,000,000,
                    5179     ;       000,000,128,128,128,128,000,000,
                    5180     ;       000,000,000,128,128,000,000,000,
                    5181     ;       000,000,000,000,000,000,000,000,
                    5182     ;       000,000,000,000,000,000,000,000},
                    5183     ;       
                    5184     ;       {000,000,000,000,000,000,000,000,
                    5185     ;       000,000,000,000,000,000,000,000,
                    5186     ;       000,000,128,000,000,128,000,000,
                    5187     ;       000,128,197,128,128,197,128,000,
                    5188     ;       000,128,197,197,197,197,128,000,
                    5189     ;       000,000,128,197,197,128,000,000,
                    5190     ;       000,000,000,128,128,000,000,000,
                    5191     ;       000,000,000,000,000,000,000,000},
                    5192     ;       
                    5193     ;       {000,000,000,255,000,000,000,000,
                    5194     ;       000,000,255,202,255,000,000,000,
                    5195     ;       000,255,202,185,202,255,000,000,
                    5196     ;       255,202,203,185,185,202,255,000,
                    5197     ;       000,255,202,203,185,185,202,255,
                    5198     ;       000,000,255,202,203,202,255,000,
                    5199     ;       000,000,000,255,202,255,000,000,
                    5200     ;       000,000,000,000,255,000,000,000},
                    5201     ; 
                    5202     ;       {000,000,000,252,252,000,000,000,
                    5203     ;       000,000,254,254,254,254,000,000,
                    5204     ;       000,254,254,254,254,254,254,000,
                    5205     ;       166,166,166,166,166,166,166,166,
                    5206     ;       000,254,254,254,254,254,254,000,
                    5207     ;       000,000,254,254,254,254,000,000,
                    5208     ;       000,000,000,252,252,000,000,000,
                    5209     ;       000,000,000,000,000,000,000,000},
                    5210     ; 
                    5211     ;       {128,128,128,128,128,128,128,128,
                    5212     ;       128,255,255,255,255,255,255,128,
                    5213     ;       128,255,255,255,255,255,255,128,
                    5214     ;       128,255,255,255,255,255,255,128,
                    5215     ;       128,255,255,255,255,255,255,128,
                    5216     ;       128,255,255,255,255,255,255,128,
                    5217     ;       128,255,255,255,255,255,255,128,
                    5218     ;       128,128,128,128,128,128,128,128},
A51 MACRO ASSEMBLER  TEXT1                                                                01/10/2019 19:42:26 PAGE    81

                    5219     ;       
                    5220     ;       {000,000,032,032,032,032,000,000,
                    5221     ;       000,032,252,252,252,252,032,000,
                    5222     ;       032,252,128,233,233, 38,252,032,
                    5223     ;       032,252,233,128, 38,233,252,032,
                    5224     ;       032,252,233, 38,128,233,252,032,
                    5225     ;       032,252, 38,233,233,128,252,032,
                    5226     ;       000,032,252,252,252,252,032,000,
                    5227     ;       000,000,032,032,032,032,000,000} 
                    5228     ; };
                    5229     ; unsigned char B[6][64] = { 
                    5230                             ; SOURCE LINE # 754
0031 7800     F     5231             MOV     R0,#LOW (B?28109)
0033 7C00     F     5232             MOV     R4,#HIGH (B?28109)
0035 7D01           5233             MOV     R5,#01H
0037 7BFF           5234             MOV     R3,#0FFH
0039 7A00     F     5235             MOV     R2,#HIGH (_?ix1002)
003B 7900     F     5236             MOV     R1,#LOW (_?ix1002)
003D 7E01           5237             MOV     R6,#01H
003F 7F80           5238             MOV     R7,#080H
0041 120000   F     5239             LCALL   ?C?COPY
                    5240     ;       {000,000,000,000,000,000,000,000,
                    5241     ;       000,000,000,000,000,000,000,000,
                    5242     ;       000,000,128,000,000,128,000,000,
                    5243     ;       000,128,192,128,128,192,128,000,
                    5244     ;       000,128,192,192,192,192,128,000,
                    5245     ;       000,000,128,192,192,128,000,000,
                    5246     ;       000,000,000,128,128,000,000,000,
                    5247     ;       000,000,000,000,000,000,000,000},
                    5248     ; 
                    5249     ;       {000,000,000,000,000,000,000,000,
                    5250     ;       000,000,000,000,000,000,000,000,
                    5251     ;       000,000,000,000,000,000,000,000,
                    5252     ;       000,000,066,000,000,066,000,000,
                    5253     ;       000,000,066,066,066,066,000,000,
                    5254     ;       000,000,000,066,066,000,000,000,
                    5255     ;       000,000,000,000,000,000,000,000,
                    5256     ;       000,000,000,000,000,000,000,000},
                    5257     ;       
                    5258     ;       {000,000,000,000,000,000,000,000,
                    5259     ;       000,000,000, 98,000,000,000,000,
                    5260     ;       000,000, 98,196,98,000,000,000,
                    5261     ;       000, 98,227,196,196,98,000,000,
                    5262     ;       000,000, 98,227,196,196,98,000,
                    5263     ;       000,000,000, 98,227,98,000,000,
                    5264     ;       000,000,000,000, 98,000,000,000,
                    5265     ;       000,000,000,000,000,000,000,000},
                    5266     ; 
                    5267     ;       {000,000,000,152,152,000,000,000,
                    5268     ;       000,000,033,033,033,033,000,000,
                    5269     ;       000,001,001,001,001,001,001,000,
                    5270     ;       001,001,001,001,001,001,001,001,
                    5271     ;       001,001,001,001,001,001,001,001,
                    5272     ;       000,001,001,001,001,001,001,000,
                    5273     ;       000,000,033,033,033,033,000,000,
                    5274     ;       000,000,000,152,152,000,000,000},
                    5275     ; 
                    5276     ;       {000,000,000,000,000,000,000,000,
                    5277     ;       000,000,000,000,000,000,000,000,
                    5278     ;       000,000,000,000,000,000,000,000,
                    5279     ;       000,000,000,255,255,000,000,000,
                    5280     ;       000,000,000,255,255,000,000,000,
                    5281     ;       000,000,000,000,000,000,000,000,
                    5282     ;       000,000,000,000,000,000,000,000,
                    5283     ;       000,000,000,000,000,000,000,000},
                    5284     ; 
A51 MACRO ASSEMBLER  TEXT1                                                                01/10/2019 19:42:26 PAGE    82

                    5285     ;       {000,000,255,255,255,255,000,000,
                    5286     ;       000,255,103,103,103,103,255,000,
                    5287     ;       255,103,013,022,022,034,103,255,
                    5288     ;       255,103,022,013,034,022,103,255,
                    5289     ;       255,103,022,034,013,022,103,255,
                    5290     ;       255,103,034,022,022,013,103,255,
                    5291     ;       000,255,103,103,103,103,255,000,
                    5292     ;       000,000,255,255,255,255,000,000} 
                    5293     ; };
                    5294     ; 
                    5295     ; for (i = 0; i<63; i++) {
                    5296                             ; SOURCE LINE # 810
0044 E4             5297             CLR     A
0045 900000   F     5298             MOV     DPTR,#i?28106
0048 F0             5299             MOVX    @DPTR,A
0049 A3             5300             INC     DPTR
004A F0             5301             MOVX    @DPTR,A
004B                5302     ?C0183:
004B 900000   F     5303             MOV     DPTR,#i?28106
004E E0             5304             MOVX    A,@DPTR
004F FE             5305             MOV     R6,A
0050 A3             5306             INC     DPTR
0051 E0             5307             MOVX    A,@DPTR
0052 FF             5308             MOV     R7,A
0053 C3             5309             CLR     C
0054 943F           5310             SUBB    A,#03FH
0056 EE             5311             MOV     A,R6
0057 6480           5312             XRL     A,#080H
0059 9480           5313             SUBB    A,#080H
005B 4003           5314             JC      $ + 5H
005D 020000   F     5315             LJMP    ?C0184
                    5316     ;       SetPointColour(i, 0, 0, 0);
                    5317                             ; SOURCE LINE # 811
0060 E4             5318             CLR     A
0061 900000   F     5319             MOV     DPTR,#?_SetPointColour?BYTE+04H
0064 F0             5320             MOVX    @DPTR,A
0065 FB             5321             MOV     R3,A
0066 FD             5322             MOV     R5,A
0067 120000   F     5323             LCALL   _SetPointColour
                    5324     ;       SetPointColour(i, R[j][i], G[j][i], B[j][i]);
                    5325                             ; SOURCE LINE # 812
006A 900000   F     5326             MOV     DPTR,#i?28106
006D E0             5327             MOVX    A,@DPTR
006E FC             5328             MOV     R4,A
006F A3             5329             INC     DPTR
0070 E0             5330             MOVX    A,@DPTR
0071 FD             5331             MOV     R5,A
0072 FF             5332             MOV     R7,A
0073 AE04           5333             MOV     R6,AR4
0075 C006           5334             PUSH    AR6
0077 C007           5335             PUSH    AR7
0079 900000   F     5336             MOV     DPTR,#j?28105
007C E0             5337             MOVX    A,@DPTR
007D FE             5338             MOV     R6,A
007E A3             5339             INC     DPTR
007F E0             5340             MOVX    A,@DPTR
0080 7806           5341             MOV     R0,#06H
0082                5342     ?C0345:
0082 C3             5343             CLR     C
0083 33             5344             RLC     A
0084 CE             5345             XCH     A,R6
0085 33             5346             RLC     A
0086 CE             5347             XCH     A,R6
0087 D8F9           5348             DJNZ    R0,?C0345
0089 2400     F     5349             ADD     A,#LOW (R?28107)
008B F582           5350             MOV     DPL,A
A51 MACRO ASSEMBLER  TEXT1                                                                01/10/2019 19:42:26 PAGE    83

008D 7400     F     5351             MOV     A,#HIGH (R?28107)
008F 3E             5352             ADDC    A,R6
0090 F583           5353             MOV     DPH,A
0092 E582           5354             MOV     A,DPL
0094 2D             5355             ADD     A,R5
0095 F582           5356             MOV     DPL,A
0097 E583           5357             MOV     A,DPH
0099 3C             5358             ADDC    A,R4
009A F583           5359             MOV     DPH,A
009C E0             5360             MOVX    A,@DPTR
009D FD             5361             MOV     R5,A
009E 900000   F     5362             MOV     DPTR,#j?28105
00A1 E0             5363             MOVX    A,@DPTR
00A2 FE             5364             MOV     R6,A
00A3 A3             5365             INC     DPTR
00A4 E0             5366             MOVX    A,@DPTR
00A5 7806           5367             MOV     R0,#06H
00A7                5368     ?C0346:
00A7 C3             5369             CLR     C
00A8 33             5370             RLC     A
00A9 CE             5371             XCH     A,R6
00AA 33             5372             RLC     A
00AB CE             5373             XCH     A,R6
00AC D8F9           5374             DJNZ    R0,?C0346
00AE 2400     F     5375             ADD     A,#LOW (G?28108)
00B0 F582           5376             MOV     DPL,A
00B2 7400     F     5377             MOV     A,#HIGH (G?28108)
00B4 3E             5378             ADDC    A,R6
00B5 F583           5379             MOV     DPH,A
00B7 C083           5380             PUSH    DPH
00B9 C082           5381             PUSH    DPL
00BB 900000   F     5382             MOV     DPTR,#i?28106
00BE E0             5383             MOVX    A,@DPTR
00BF FE             5384             MOV     R6,A
00C0 A3             5385             INC     DPTR
00C1 E0             5386             MOVX    A,@DPTR
00C2 D082           5387             POP     DPL
00C4 D083           5388             POP     DPH
00C6 2582           5389             ADD     A,DPL
00C8 F582           5390             MOV     DPL,A
00CA E583           5391             MOV     A,DPH
00CC 3E             5392             ADDC    A,R6
00CD F583           5393             MOV     DPH,A
00CF E0             5394             MOVX    A,@DPTR
00D0 FB             5395             MOV     R3,A
00D1 900000   F     5396             MOV     DPTR,#j?28105
00D4 E0             5397             MOVX    A,@DPTR
00D5 FE             5398             MOV     R6,A
00D6 A3             5399             INC     DPTR
00D7 E0             5400             MOVX    A,@DPTR
00D8 7806           5401             MOV     R0,#06H
00DA                5402     ?C0347:
00DA C3             5403             CLR     C
00DB 33             5404             RLC     A
00DC CE             5405             XCH     A,R6
00DD 33             5406             RLC     A
00DE CE             5407             XCH     A,R6
00DF D8F9           5408             DJNZ    R0,?C0347
00E1 2400     F     5409             ADD     A,#LOW (B?28109)
00E3 F582           5410             MOV     DPL,A
00E5 7400     F     5411             MOV     A,#HIGH (B?28109)
00E7 3E             5412             ADDC    A,R6
00E8 F583           5413             MOV     DPH,A
00EA C083           5414             PUSH    DPH
00EC C082           5415             PUSH    DPL
00EE 900000   F     5416             MOV     DPTR,#i?28106
A51 MACRO ASSEMBLER  TEXT1                                                                01/10/2019 19:42:26 PAGE    84

00F1 E0             5417             MOVX    A,@DPTR
00F2 FE             5418             MOV     R6,A
00F3 A3             5419             INC     DPTR
00F4 E0             5420             MOVX    A,@DPTR
00F5 D082           5421             POP     DPL
00F7 D083           5422             POP     DPH
00F9 2582           5423             ADD     A,DPL
00FB F582           5424             MOV     DPL,A
00FD E583           5425             MOV     A,DPH
00FF 3E             5426             ADDC    A,R6
0100 F583           5427             MOV     DPH,A
0102 E0             5428             MOVX    A,@DPTR
0103 900000   F     5429             MOV     DPTR,#?_SetPointColour?BYTE+04H
0106 F0             5430             MOVX    @DPTR,A
0107 D007           5431             POP     AR7
0109 D006           5432             POP     AR6
010B 120000   F     5433             LCALL   _SetPointColour
                    5434     ;       HAL_Delay(time);
                    5435                             ; SOURCE LINE # 813
010E 900000   F     5436             MOV     DPTR,#time?28104
0111 E0             5437             MOVX    A,@DPTR
0112 FF             5438             MOV     R7,A
0113 7E00           5439             MOV     R6,#00H
0115 120000   F     5440             LCALL   _HAL_Delay
                    5441     ; }
                    5442                             ; SOURCE LINE # 814
0118 900000   F     5443             MOV     DPTR,#i?28106+01H
011B E0             5444             MOVX    A,@DPTR
011C 04             5445             INC     A
011D F0             5446             MOVX    @DPTR,A
011E 6003           5447             JZ      $ + 5H
0120 020000   F     5448             LJMP    ?C0183
0123 900000   F     5449             MOV     DPTR,#i?28106
0126 E0             5450             MOVX    A,@DPTR
0127 04             5451             INC     A
0128 F0             5452             MOVX    @DPTR,A
0129                5453     ?C0348:
0129 020000   F     5454             LJMP    ?C0183
012C                5455     ?C0184:
                    5456     ;       ReSet();
                    5457                             ; SOURCE LINE # 815
012C 020000   F     5458             LJMP    ReSet
                    5459     ; END OF _LightEffect1
                    5460     
                    5461     ;                                       }
                    5462     ; /*
                    5463     ; void LightEffect1111(unsigned char time, unsigned int j)
                    5464     ; {
                    5465     ;       int i;
                    5466     ;       uchar R1[]={000,000,000,000,000,000,000,000,    
                    5467     ;             000,006,006,000,000,006,006,000,
                    5468     ;                       006,121,121,006,006,121,121,006,
                    5469     ;             006,121,29,121,121,29,121,006,                                               
                                                  
                    5470     ;             006,121,29,29,29,121,121,006,
                    5471     ;                       000,006,121,29,29,121,006,000,
                    5472     ;             000,000,006,121,121,006,000,000,
                    5473     ;             000,000,000,006,006,000,000,000};
                    5474     ;       uchar G1[]={000,000,000,000,000,000,000,000,    
                    5475     ;             000,249,249,000,000,249,249,000,
                    5476     ;                       249,001,001,249,249,001,001,249,
                    5477     ;             249,001,167,001,001,167,001,249,                                             
                                                  
                    5478     ;             249,001,167,167,167,167,001,249,
                    5479     ;                       000,249,001,167,167,001,249,000,
                    5480     ;             000,000,249,001,001,249,000,000,
A51 MACRO ASSEMBLER  TEXT1                                                                01/10/2019 19:42:26 PAGE    85

                    5481     ;             000,000,000,249,249,000,000,000};
                    5482     ;       uchar B1[]={000,000,000,000,000,000,000,000,    
                    5483     ;             000,242,242,000,000,242,242,000,
                    5484     ;                       242,254,254,242,242,254,254,242,
                    5485     ;             242,254,226,254,254,226,254,242,                                             
                                                  
                    5486     ;             242,254,226,226,226,226,254,242,
                    5487     ;                       000,242,254,226,226,254,242,000,
                    5488     ;             000,000,242,254,254,242,000,000,
                    5489     ;             000,000,000,242,242,000,000,000}; //large heart  blue purple      
                    5490     ; 
                    5491     ;       uchar R2[]={000,000,000,000,000,000,000,000,    
                    5492     ;             000,255,255,000,000,255,255,000,
                    5493     ;                       255,255,255,255,255,255,255,255,
                    5494     ;             255,255,255,255,255,255,255,255,                                             
                                                  
                    5495     ;             255,255,255,255,255,255,255,255,
                    5496     ;                       000,255,255,255,255,255,000,000,
                    5497     ;             000,000,255,255,255,255,000,000,
                    5498     ;             000,000,000,255,255,000,000,000};
                    5499     ;       uchar G2[]={000,000,000,000,000,000,000,000,    
                    5500     ;             000,128,128,000,000,128,128,000,
                    5501     ;                       128,128,128,128,128,128,128,128,
                    5502     ;             128,128,128,128,128,128,128,128,                                             
                                                  
                    5503     ;             128,128,128,128,128,128,128,128,
                    5504     ;                       000,128,128,128,128,128,128,000,
                    5505     ;             000,000,128,128,128,128,000,000,
                    5506     ;             000,000,000,128,128,000,000,000};
                    5507     ;       uchar B2[]={000,000,000,000,000,000,000,000,    
                    5508     ;             000,000,000,000,000,000,000,000,
                    5509     ;                       000,000,000,000,000,000,000,000,
                    5510     ;             000,000,000,000,000,000,000,000,                                             
                                                  
                    5511     ;             000,000,000,000,000,000,000,000,
                    5512     ;                       000,000,000,000,000,000,000,000,
                    5513     ;             000,000,000,000,000,000,000,000,
                    5514     ;             000,000,000,000,000,000,000,000};  //large heart  orange
                    5515     ;       
                    5516     ;       uchar R3[]={000,000,000,000,000,000,000,000     ,
                    5517     ;             000,000,255,000,000,000,255,000,
                    5518     ;                       000,255,000,255,000,255,000,255,
                    5519     ;             000,000,000,000,000,000,000,000           ,                                  
                                                  
                    5520     ;             000,000,000,255,000,255,000,000,
                    5521     ;                       000,000,000,000,255,000,000,000,
                    5522     ;             000,000,000,000,000,000,000,000,
                    5523     ;             000,000,000,000,000,000,000,000}; 
                    5524     ;       uchar G3[]={000,000,000,000,000,000,000,000     ,
                    5525     ;             000,000,255,000,000,000,255,000,
                    5526     ;                       000,255,000,255,000,255,000,255,
                    5527     ;             000,000,000,000,000,000,000,000           ,                                  
                                                  
                    5528     ;             000,000,000,255,000,255,000,000,
                    5529     ;                       000,000,000,000,255,000,000,000,
                    5530     ;             000,000,000,000,000,000,000,000,
                    5531     ;             000,000,000,000,000,000,000,000}; 
                    5532     ;       uchar B3[]={000,000,000,000,000,000,000,000,    
                    5533     ;             000,000,000,000,000,000,000,000  ,
                    5534     ;                       000,000,000,000,000,000,000,000,
                    5535     ;             000,000,000,000,000,000,000,000                           ,                  
                                                  
                    5536     ;             000,000,000,000,000,000,000,000,
                    5537     ;                       000,000,000,000,000,000,000,000,
                    5538     ;             000,000,000,000,000,000,000,000,
                    5539     ;             000,000,000,000,000,000,000,000};   //
A51 MACRO ASSEMBLER  TEXT1                                                                01/10/2019 19:42:26 PAGE    86

                    5540     ; 
                    5541     ; 
                    5542     ;       uchar R4[]={255,000,000,000,000,000,000,255,    
                    5543     ;             000,255,000,000,000,000,255,000,
                    5544     ;                       000,000,255,000,000,255,000,000,
                    5545     ;             000,000,000,146,146,000,000,000                           ,                  
                                                  
                    5546     ;             000,000,000,146,146,000,000,000,
                    5547     ;                       000,000,255,000,000,255,000,000,
                    5548     ;             000,255,000,000,000,000,255,000,
                    5549     ;             255,000,000,000,000,000,000,255}; 
                    5550     ;       uchar G4[]={000,000,000,000,000,000,000,000,    
                    5551     ;             000,000,000,000,000,000,000,000,
                    5552     ;                       000,000,000,000,000,000,000,000,
                    5553     ;             000,000,000,036,036,000,000,000                           ,                  
                                                  
                    5554     ;             000,000,000,036,036,000,000,000,
                    5555     ;                       000,000,000,000,000,000,000,000,
                    5556     ;             000,000,000,000,000,000,000,000,
                    5557     ;             000,000,000,000,000,000,000,000}; 
                    5558     ;       uchar B4[]={128,000,000,000,000,000,000,128,    
                    5559     ;             000,128,000,000,000,000,128,000,
                    5560     ;                       000,000,128,000,000,128,000,000,
                    5561     ;             000,000,000,219,219,000,000,000                           ,                  
                                                  
                    5562     ;             000,000,000,219,219,000,000,000,
                    5563     ;                       000,000,128,000,000,128,000,000,
                    5564     ;             000,128,000,000,000,000,128,000,
                    5565     ;             128,000,000,000,000,000,000,128};    //X
                    5566     ; 
                    5567     ;       uchar R5[]={064,000,064,000,000,064,064,064,    
                    5568     ;             064,000,064,000,000,064,000,064,
                    5569     ;                       064,064,064,000,000,064,064,064,
                    5570     ;             000,000,000,242,242,000,000,000                           ,                  
                                                  
                    5571     ;             000,000,000,242,242,000,000,000,
                    5572     ;                       064,064,064,000,000,064,064,064,
                    5573     ;             064,000,064,000,000,064,000,064,
                    5574     ;             064,064,064,000,000,064,064,064}; 
                    5575     ;       uchar G5[]={064,064,064,000,000,064,064,064,    
                    5576     ;             064,000,064,000,000,064,000,064,
                    5577     ;                       064,064,064,000,000,064,064,064,
                    5578     ;             000,000,000,064,064,000,000,000                           ,                  
                                                  
                    5579     ;             000,000,000,064,064,000,000,000,
                    5580     ;                       064,064,064,000,000,064,064,064  ,
                    5581     ;             064,000,064,000,000,064,000,064,
                    5582     ;             064,000,064,000,000,064,064,064}; 
                    5583     ;       uchar B5[]={064,000,064,000,000,064,064,064,    
                    5584     ;             064,000,064,000,000,064,000,064,
                    5585     ;                       064,064,064,000,000,064,064,064,
                    5586     ;             000,000,000,126,126,000,000,000                           ,                  
                                                  
                    5587     ;             000,000,000,126,126,000,000,000,
                    5588     ;                       064,064,064,000,000,064,064,064,
                    5589     ;             064,000,064,000,000,064,000,064  ,
                    5590     ;             064,064,064,000,000,064,000,064};   //
                    5591     ; 
                    5592     ;       uchar R6[]={000,000,000,000,000,000,000,000,    
                    5593     ;             000,000,000,000,000,000,000,000,
                    5594     ;                       000,000,000,000,000,000,000,000,
                    5595     ;             000,000,000,000,000,000,000,000                           ,                  
                                                  
                    5596     ;             000,000,000,000,000,000,000,000,
                    5597     ;                       000,000,000,000,000,000,000,000,
                    5598     ;             000,000,000,000,000,000,000,000,
A51 MACRO ASSEMBLER  TEXT1                                                                01/10/2019 19:42:26 PAGE    87

                    5599     ;             000,000,000,000,000,000,000,000}; 
                    5600     ;       uchar G6[]={000,000,000,000,000,000,000,000,    
                    5601     ;             000,000,000,000,000,000,000,000,
                    5602     ;                       000,000,000,000,000,000,000,000,
                    5603     ;                                         000,000,000,000,000,000,000,000,                 
                                                                                  
                    5604     ;             000,000,000,000,000,000,000,000,
                    5605     ;                       000,000,000,000,000,000,000,000,
                    5606     ;             000,000,000,000,000,000,000,000,
                    5607     ;             000,000,000,000,000,000,000,000}; 
                    5608     ;       uchar B6[]={000,000,000,000,000,000,000,000,    
                    5609     ;             000,000,000,000,000,000,000,000,
                    5610     ;                       000,000,000,000,000,000,000,000,
                    5611     ;             000,000,000,000,000,000,000,000                           ,                  
                                                  
                    5612     ;             000,000,000,000,000,000,000,000,
                    5613     ;                       000,000,000,000,000,000,000,000,
                    5614     ;             000,000,000,000,000,000,000,000,
                    5615     ;             000,000,000,000,000,000,000,000};
                    5616     ;       uchar R[5][64]={R1,R2,R3,R4,R5};
                    5617     ;       uchar G[5][64]={G1,G2,G3,G4,G5};
                    5618     ;       uchar B[5][64]={B1,B2,B3,B4,B5};
                    5619     ;       
                    5620     ; for (i = 0; i<63; i++) {
                    5621     ;       SetPointColour(i, 0, 0, 0);
                    5622     ;       SetPointColour(i, R[j][i], G[j][i], B[j][i]);
                    5623     ;       HAL_Delay(time);
                    5624     ; }
                    5625     ;                                       }
                    5626     ; */
                    5627     ; 
                    5628     ; void LightControll(uchar keyvalue)
                    5629     
----                5630             RSEG  ?PR?_LightControll?TEXT1
0000                5631     _LightControll:
                    5632             USING   0
                    5633                             ; SOURCE LINE # 983
                    5634     ;---- Variable 'keyvalue?29110' assigned to Register 'R7' ----
                    5635     ;                                               {
                    5636                             ; SOURCE LINE # 984
                    5637     ;                                                       switch (keyvalue)
                    5638                             ; SOURCE LINE # 985
0000 EF             5639             MOV     A,R7
0001 B44000         5640             CJNE    A,#040H,?C0349
0004                5641     ?C0349:
0004 4003           5642             JC      $ + 5H
0006 020000   F     5643             LJMP    ?C0253
0009 900000   F     5644             MOV     DPTR,#?C0350
000C F8             5645             MOV     R0,A
000D 28             5646             ADD     A,R0
000E 28             5647             ADD     A,R0
000F 73             5648             JMP     @A+DPTR
0010                5649     ?C0350:
0010 020000   F     5650             LJMP    ?C0188
0013 020000   F     5651             LJMP    ?C0189
0016 020000   F     5652             LJMP    ?C0190
0019 020000   F     5653             LJMP    ?C0191
001C 020000   F     5654             LJMP    ?C0192
001F 020000   F     5655             LJMP    ?C0193
0022 020000   F     5656             LJMP    ?C0194
0025 020000   F     5657             LJMP    ?C0195
0028 020000   F     5658             LJMP    ?C0196
002B 020000   F     5659             LJMP    ?C0197
002E 020000   F     5660             LJMP    ?C0198
0031 020000   F     5661             LJMP    ?C0199
0034 020000   F     5662             LJMP    ?C0200
A51 MACRO ASSEMBLER  TEXT1                                                                01/10/2019 19:42:26 PAGE    88

0037 020000   F     5663             LJMP    ?C0201
003A 020000   F     5664             LJMP    ?C0202
003D 020000   F     5665             LJMP    ?C0203
0040 020000   F     5666             LJMP    ?C0204
0043 020000   F     5667             LJMP    ?C0205
0046 020000   F     5668             LJMP    ?C0206
0049 020000   F     5669             LJMP    ?C0207
004C 020000   F     5670             LJMP    ?C0208
004F 020000   F     5671             LJMP    ?C0209
0052 020000   F     5672             LJMP    ?C0210
0055 020000   F     5673             LJMP    ?C0211
0058 020000   F     5674             LJMP    ?C0212
005B 020000   F     5675             LJMP    ?C0213
005E 020000   F     5676             LJMP    ?C0214
0061 020000   F     5677             LJMP    ?C0215
0064 020000   F     5678             LJMP    ?C0216
0067 020000   F     5679             LJMP    ?C0217
006A 020000   F     5680             LJMP    ?C0218
006D 020000   F     5681             LJMP    ?C0219
0070 020000   F     5682             LJMP    ?C0220
0073 020000   F     5683             LJMP    ?C0221
0076 020000   F     5684             LJMP    ?C0222
0079 020000   F     5685             LJMP    ?C0223
007C 020000   F     5686             LJMP    ?C0224
007F 020000   F     5687             LJMP    ?C0225
0082 020000   F     5688             LJMP    ?C0226
0085 020000   F     5689             LJMP    ?C0227
0088 020000   F     5690             LJMP    ?C0228
008B 020000   F     5691             LJMP    ?C0229
008E 020000   F     5692             LJMP    ?C0230
0091 020000   F     5693             LJMP    ?C0231
0094 020000   F     5694             LJMP    ?C0232
0097 020000   F     5695             LJMP    ?C0233
009A 020000   F     5696             LJMP    ?C0234
009D 020000   F     5697             LJMP    ?C0235
00A0 020000   F     5698             LJMP    ?C0236
00A3 020000   F     5699             LJMP    ?C0237
00A6 020000   F     5700             LJMP    ?C0238
00A9 020000   F     5701             LJMP    ?C0239
00AC 020000   F     5702             LJMP    ?C0240
00AF 020000   F     5703             LJMP    ?C0241
00B2 020000   F     5704             LJMP    ?C0242
00B5 020000   F     5705             LJMP    ?C0243
00B8 020000   F     5706             LJMP    ?C0244
00BB 020000   F     5707             LJMP    ?C0249
00BE 020000   F     5708             LJMP    ?C0249
00C1 020000   F     5709             LJMP    ?C0247
00C4 020000   F     5710             LJMP    ?C0248
00C7 020000   F     5711             LJMP    ?C0249
00CA 020000   F     5712             LJMP    ?C0249
00CD 020000   F     5713             LJMP    ?C0251
                    5714     ;                                                       {
                    5715                             ; SOURCE LINE # 986
                    5716     ;                                                       case '\x00':LightEffect8_1(); break
                             ;
                    5717                             ; SOURCE LINE # 987
00D0                5718     ?C0188:
00D0 020000   F     5719             LJMP    LightEffect8_1
                    5720     ;                                                       case '\x01':theaterChase(Color(0, 0
                             , 255), 10); break;
                    5721                             ; SOURCE LINE # 988
00D3                5722     ?C0189:
00D3 800A           5723             SJMP    ?C0367
                    5724     ;                                                       case '\x02':theaterChase(Color(0, 0
                             , 255), 10); break;
                    5725                             ; SOURCE LINE # 989
A51 MACRO ASSEMBLER  TEXT1                                                                01/10/2019 19:42:26 PAGE    89

00D5                5726     ?C0190:
00D5                5727     ?C0363:
00D5 8008           5728             SJMP    ?C0367
                    5729     ;                                                       case '\x03':LightEffect1(20,0); bre
                             ak;
                    5730                             ; SOURCE LINE # 990
00D7                5731     ?C0191:
00D7 806D           5732             SJMP    ?C0365
                    5733     ;                                                       case '\x04': LightEffect1(20,1);bre
                             ak;
                    5734                             ; SOURCE LINE # 991
00D9                5735     ?C0192:
00D9 7D01           5736             MOV     R5,#01H
00DB 8078           5737             SJMP    ?C0385
                    5738     ;                                                       case '\x05':theaterChase(Color(0, 0
                             , 255), 10); break;
                    5739                             ; SOURCE LINE # 992
00DD                5740     ?C0193:
00DD                5741     ?C0364:
00DD 8000           5742             SJMP    ?C0367
                    5743     ;                                                       case '\x06':theaterChase(Color(0, 0
                             , 255), 10); break;
                    5744                             ; SOURCE LINE # 993
00DF                5745     ?C0194:
00DF                5746     ?C0367:
00DF 7BFF           5747             MOV     R3,#0FFH
00E1 E4             5748             CLR     A
00E2 FD             5749             MOV     R5,A
00E3 FF             5750             MOV     R7,A
00E4 120000   F     5751             LCALL   _Color
00E7 900000   F     5752             MOV     DPTR,#?_theaterChase?BYTE+04H
00EA E4             5753             CLR     A
00EB F0             5754             MOVX    @DPTR,A
00EC A3             5755             INC     DPTR
00ED 740A           5756             MOV     A,#0AH
00EF F0             5757             MOVX    @DPTR,A
00F0 020000   F     5758             LJMP    _theaterChase
                    5759     ;                                                       case '\x07':LightEffect1_1(); break
                             ;
                    5760                             ; SOURCE LINE # 994
00F3                5761     ?C0195:
00F3 806E           5762             SJMP    ?C0368
                    5763     ;                                                       case '\x08':rainbow(40); break;
                    5764                             ; SOURCE LINE # 995
00F5                5765     ?C0196:
00F5 020000   F     5766             LJMP    ?C0400
                    5767     ;                                                       case '\t':LightEffect8(9); break;
                    5768                             ; SOURCE LINE # 996
00F8                5769     ?C0197:
00F8 7F09           5770             MOV     R7,#09H
00FA 020000   F     5771             LJMP    ?C0412
                    5772     ;                                                       case '\n':LightEffect8(10); break;
                    5773                             ; SOURCE LINE # 997
00FD                5774     ?C0198:
00FD 7F0A           5775             MOV     R7,#0AH
00FF                5776     ?C0370:
00FF 020000   F     5777             LJMP    ?C0412
                    5778     ;                                                       case '\x0b':LightEffect8(11); break
                             ;
                    5779                             ; SOURCE LINE # 998
0102                5780     ?C0199:
0102 7F0B           5781             MOV     R7,#0BH
0104                5782     ?C0371:
0104 020000   F     5783             LJMP    ?C0412
                    5784     ;                                                       case '\x0c':LightEffect8(12); break
                             ;
A51 MACRO ASSEMBLER  TEXT1                                                                01/10/2019 19:42:26 PAGE    90

                    5785                             ; SOURCE LINE # 999
0107                5786     ?C0200:
0107 7F0C           5787             MOV     R7,#0CH
0109                5788     ?C0372:
0109 020000   F     5789             LJMP    ?C0412
                    5790     ;                                                       case '\r':LightEffect8(13); break;
                    5791                             ; SOURCE LINE # 1000
010C                5792     ?C0201:
010C 7F0D           5793             MOV     R7,#0DH
010E                5794     ?C0373:
010E 020000   F     5795             LJMP    ?C0412
                    5796     ;                                                       case '\x0e':LightEffect8(14); break
                             ;
                    5797                             ; SOURCE LINE # 1001
0111                5798     ?C0202:
0111 7F0E           5799             MOV     R7,#0EH
0113                5800     ?C0374:
0113 020000   F     5801             LJMP    ?C0412
                    5802     ;                                                       case '\x0f':theaterChaseRainbow(40)
                             ; break;
                    5803                             ; SOURCE LINE # 1002
0116                5804     ?C0203:
0116 020000   F     5805             LJMP    ?C0407
                    5806     ;                                                       case '\x10':rainbow(40); break;
                    5807                             ; SOURCE LINE # 1003
0119                5808     ?C0204:
0119                5809     ?C0369:
0119 020000   F     5810             LJMP    ?C0400
                    5811     ;                                                       case '\x11':LightEffect8(17); break
                             ;
                    5812                             ; SOURCE LINE # 1004
011C                5813     ?C0205:
011C 7F11           5814             MOV     R7,#011H
011E                5815     ?C0375:
011E 020000   F     5816             LJMP    ?C0412
                    5817     ;                                                       case '\x12':LightEffect8(18); break
                             ;
                    5818                             ; SOURCE LINE # 1005
0121                5819     ?C0206:
0121 7F12           5820             MOV     R7,#012H
0123                5821     ?C0378:
0123 020000   F     5822             LJMP    ?C0412
                    5823     ;                                                       case '\x13':LightEffect8(19); break
                             ;
                    5824                             ; SOURCE LINE # 1006
0126                5825     ?C0207:
0126 7F13           5826             MOV     R7,#013H
0128                5827     ?C0379:
0128 020000   F     5828             LJMP    ?C0412
                    5829     ;                                                       case '\x14':LightEffect8(20); break
                             ;
                    5830                             ; SOURCE LINE # 1007
012B                5831     ?C0208:
012B 7F14           5832             MOV     R7,#014H
012D                5833     ?C0380:
012D 020000   F     5834             LJMP    ?C0412
                    5835     ;                                                       case '\x15':LightEffect8(21); break
                             ;
                    5836                             ; SOURCE LINE # 1008
0130                5837     ?C0209:
0130 7F15           5838             MOV     R7,#015H
0132                5839     ?C0381:
0132 020000   F     5840             LJMP    ?C0412
                    5841     ;                                                       case '\x16':LightEffect8(22); break
                             ;
                    5842                             ; SOURCE LINE # 1009
A51 MACRO ASSEMBLER  TEXT1                                                                01/10/2019 19:42:26 PAGE    91

0135                5843     ?C0210:
0135 7F16           5844             MOV     R7,#016H
0137                5845     ?C0382:
0137 020000   F     5846             LJMP    ?C0412
                    5847     ;                                                       case '\x17':theaterChaseRainbow(40)
                             ; break;
                    5848                             ; SOURCE LINE # 1010
013A                5849     ?C0211:
013A                5850     ?C0376:
013A 020000   F     5851             LJMP    ?C0407
                    5852     ;                                                       case '\x18':LightEffect1(20,2); bre
                             ak;
                    5853                             ; SOURCE LINE # 1011
013D                5854     ?C0212:
013D 7D02           5855             MOV     R5,#02H
013F                5856     ?C0366:
013F 8014           5857             SJMP    ?C0385
                    5858     ;                                                       case '\x19':LightEffect8(25); break
                             ;
                    5859                             ; SOURCE LINE # 1012
0141                5860     ?C0213:
0141 7F19           5861             MOV     R7,#019H
0143                5862     ?C0383:
0143 020000   F     5863             LJMP    ?C0412
                    5864     ;                                                       case '\x1a':LightEffect1(20, 0); br
                             eak;
                    5865                             ; SOURCE LINE # 1013
0146                5866     ?C0214:
0146                5867     ?C0365:
0146 E4             5868             CLR     A
0147 FD             5869             MOV     R5,A
0148 FC             5870             MOV     R4,A
0149 8035           5871             SJMP    ?C0394
                    5872     ;                                                       case '\x1b':LightEffect1(10, 1); br
                             eak;
                    5873                             ; SOURCE LINE # 1014
014B                5874     ?C0215:
014B 7D01           5875             MOV     R5,#01H
014D 8027           5876             SJMP    ?C0395
                    5877     ;                                                       case '\x1c':LightEffect1(10, 2); br
                             eak;
                    5878                             ; SOURCE LINE # 1015
014F                5879     ?C0216:
014F 7D02           5880             MOV     R5,#02H
0151                5881     ?C0388:
0151 8023           5882             SJMP    ?C0395
                    5883     ;                                                       case '\x1d':LightEffect1(20, 3); br
                             eak;
                    5884                             ; SOURCE LINE # 1016
0153                5885     ?C0217:
0153 7D03           5886             MOV     R5,#03H
0155                5887     ?C0385:
0155 7C00           5888             MOV     R4,#00H
0157                5889     ?C0387:
0157 8027           5890             SJMP    ?C0394
                    5891     ;                                                       case '\x1e':LightEffect8(30); break
                             ;
                    5892                             ; SOURCE LINE # 1017
0159                5893     ?C0218:
0159 7F1E           5894             MOV     R7,#01EH
015B                5895     ?C0386:
015B 806C           5896             SJMP    ?C0412
                    5897     ;                                                       case '\x1f':LightEffect1(20,3); bre
                             ak;
                    5898                             ; SOURCE LINE # 1018
015D                5899     ?C0219:
A51 MACRO ASSEMBLER  TEXT1                                                                01/10/2019 19:42:26 PAGE    92

015D 7D03           5900             MOV     R5,#03H
015F 7C00           5901             MOV     R4,#00H
0161                5902     ?C0390:
0161 801D           5903             SJMP    ?C0394
                    5904     ;                                                       case ' ':LightEffect1_1(); break;
                    5905                             ; SOURCE LINE # 1019
0163                5906     ?C0220:
0163                5907     ?C0368:
0163 020000   F     5908             LJMP    LightEffect1_1
                    5909     ;                                                       case '!':LightEffect8(33); break;
                    5910                             ; SOURCE LINE # 1020
0166                5911     ?C0221:
0166 7F21           5912             MOV     R7,#021H
0168                5913     ?C0391:
0168 805F           5914             SJMP    ?C0412
                    5915     ;                                                       case '"':LightEffect1(20, 4); break
                             ;
                    5916                             ; SOURCE LINE # 1021
016A                5917     ?C0222:
016A 7D04           5918             MOV     R5,#04H
016C 7C00           5919             MOV     R4,#00H
016E                5920     ?C0392:
016E 8010           5921             SJMP    ?C0394
                    5922     ;                                                       case '#':LightEffect1(10, 5); break
                             ;
                    5923                             ; SOURCE LINE # 1022
0170                5924     ?C0223:
0170 7D05           5925             MOV     R5,#05H
0172                5926     ?C0389:
0172 8002           5927             SJMP    ?C0395
                    5928     ;                                                       case '$':LightEffect1(10, 6); break
                             ;
                    5929                             ; SOURCE LINE # 1023
0174                5930     ?C0224:
0174 7D06           5931             MOV     R5,#06H
0176                5932     ?C0395:
0176 7C00           5933             MOV     R4,#00H
0178 7F0A           5934             MOV     R7,#0AH
017A 806A           5935             SJMP    ?C0415
                    5936     ;                                                       case '%':LightEffect1(20, 7); break
                             ;
                    5937                             ; SOURCE LINE # 1024
017C                5938     ?C0225:
017C 7D07           5939             MOV     R5,#07H
017E 7C00           5940             MOV     R4,#00H
0180                5941     ?C0394:
0180 7F14           5942             MOV     R7,#014H
0182                5943     ?C0396:
0182 8062           5944             SJMP    ?C0415
                    5945     ;                                                       case '&':LightEffect8(38); break;
                    5946                             ; SOURCE LINE # 1025
0184                5947     ?C0226:
0184 7F26           5948             MOV     R7,#026H
0186                5949     ?C0393:
0186 8041           5950             SJMP    ?C0412
                    5951     ;                                                       case '\'':LightEffect1(20,4); break
                             ;
                    5952                             ; SOURCE LINE # 1026
0188                5953     ?C0227:
0188 7D04           5954             MOV     R5,#04H
018A 7C00           5955             MOV     R4,#00H
018C 7F14           5956             MOV     R7,#014H
018E                5957     ?C0397:
018E 8056           5958             SJMP    ?C0415
                    5959     ;                                                       case '(':rainbow(40); break;
                    5960                             ; SOURCE LINE # 1027
A51 MACRO ASSEMBLER  TEXT1                                                                01/10/2019 19:42:26 PAGE    93

0190                5961     ?C0228:
0190                5962     ?C0377:
0190 801A           5963             SJMP    ?C0400
                    5964     ;                                                       case ')':LightEffect8(41); break;
                    5965                             ; SOURCE LINE # 1028
0192                5966     ?C0229:
0192 7F29           5967             MOV     R7,#029H
0194                5968     ?C0398:
0194 8033           5969             SJMP    ?C0412
                    5970     ;                                                       case '*':LightEffect8(42); break;
                    5971                             ; SOURCE LINE # 1029
0196                5972     ?C0230:
0196 7F2A           5973             MOV     R7,#02AH
0198                5974     ?C0401:
0198 802F           5975             SJMP    ?C0412
                    5976     ;                                                       case '+':LightEffect8(43); break;
                    5977                             ; SOURCE LINE # 1030
019A                5978     ?C0231:
019A 7F2B           5979             MOV     R7,#02BH
019C                5980     ?C0402:
019C 802B           5981             SJMP    ?C0412
                    5982     ;                                                       case ',':LightEffect8(44); break;
                    5983                             ; SOURCE LINE # 1031
019E                5984     ?C0232:
019E 7F2C           5985             MOV     R7,#02CH
01A0                5986     ?C0403:
01A0 8027           5987             SJMP    ?C0412
                    5988     ;                                                       case '-':LightEffect8(45); break;
                    5989                             ; SOURCE LINE # 1032
01A2                5990     ?C0233:
01A2 7F2D           5991             MOV     R7,#02DH
01A4                5992     ?C0404:
01A4 8023           5993             SJMP    ?C0412
                    5994     ;                                                       case '.':LightEffect8(46); break;
                    5995                             ; SOURCE LINE # 1033
01A6                5996     ?C0234:
01A6 7F2E           5997             MOV     R7,#02EH
01A8                5998     ?C0405:
01A8 801F           5999             SJMP    ?C0412
                    6000     ;                                                       case '/':theaterChaseRainbow(40); b
                             reak;
                    6001                             ; SOURCE LINE # 1034
01AA                6002     ?C0235:
01AA                6003     ?C0384:
01AA 8022           6004             SJMP    ?C0407
                    6005     ;                                                       case '0':rainbow(40); break;
                    6006                             ; SOURCE LINE # 1035
01AC                6007     ?C0236:
01AC                6008     ?C0400:
01AC 7F28           6009             MOV     R7,#028H
01AE 7E00           6010             MOV     R6,#00H
01B0 020000   F     6011             LJMP    _rainbow
                    6012     ;                                                       case '1':LightEffect8(49); break;
                    6013                             ; SOURCE LINE # 1036
01B3                6014     ?C0237:
01B3 7F31           6015             MOV     R7,#031H
01B5                6016     ?C0406:
01B5 8012           6017             SJMP    ?C0412
                    6018     ;                                                       case '2':LightEffect8(50); break;
                    6019                             ; SOURCE LINE # 1037
01B7                6020     ?C0238:
01B7 7F32           6021             MOV     R7,#032H
01B9                6022     ?C0408:
01B9 800E           6023             SJMP    ?C0412
                    6024     ;                                                       case '3':LightEffect8(51); break;
                    6025                             ; SOURCE LINE # 1038
A51 MACRO ASSEMBLER  TEXT1                                                                01/10/2019 19:42:26 PAGE    94

01BB                6026     ?C0239:
01BB 7F33           6027             MOV     R7,#033H
01BD                6028     ?C0409:
01BD 800A           6029             SJMP    ?C0412
                    6030     ;                                                       case '4':LightEffect8(52); break;
                    6031                             ; SOURCE LINE # 1039
01BF                6032     ?C0240:
01BF 7F34           6033             MOV     R7,#034H
01C1                6034     ?C0410:
01C1 8006           6035             SJMP    ?C0412
                    6036     ;                                                       case '5':LightEffect8(53); break;
                    6037                             ; SOURCE LINE # 1040
01C3                6038     ?C0241:
01C3 7F35           6039             MOV     R7,#035H
01C5                6040     ?C0411:
01C5 8002           6041             SJMP    ?C0412
                    6042     ;                                                       case '6':LightEffect8(54); break;
                    6043                             ; SOURCE LINE # 1041
01C7                6044     ?C0242:
01C7 7F36           6045             MOV     R7,#036H
01C9                6046     ?C0412:
01C9 7E00           6047             MOV     R6,#00H
01CB 020000   F     6048             LJMP    _LightEffect8
                    6049     ;                                                       case '7':theaterChaseRainbow(40); b
                             reak;
                    6050                             ; SOURCE LINE # 1042
01CE                6051     ?C0243:
01CE                6052     ?C0407:
01CE 7F28           6053             MOV     R7,#028H
01D0 7E00           6054             MOV     R6,#00H
01D2 020000   F     6055             LJMP    _theaterChaseRainbow
                    6056     ;                                                       case '8':LightEffect8_8(); break;
                    6057                             ; SOURCE LINE # 1043
01D5                6058     ?C0244:
01D5 020000   F     6059             LJMP    LightEffect8_8
                    6060     ;                                                       case '9':colorWipe(255, 255); break
                             ;
                    6061                             ; SOURCE LINE # 1044
                    6062     ;                                                       case ':':colorWipe(255, 255); break
                             ;
                    6063                             ; SOURCE LINE # 1045
                    6064     ;                                                       case ';':LightEffect1(20,5); break;
                    6065                             ; SOURCE LINE # 1046
01D8                6066     ?C0247:
01D8 7D05           6067             MOV     R5,#05H
01DA 7C00           6068             MOV     R4,#00H
01DC 7F14           6069             MOV     R7,#014H
01DE                6070     ?C0399:
01DE 8006           6071             SJMP    ?C0415
                    6072     ;                                                       case '<':LightEffect1(20,4); break;
                    6073                             ; SOURCE LINE # 1047
01E0                6074     ?C0248:
01E0 7D04           6075             MOV     R5,#04H
01E2 7C00           6076             MOV     R4,#00H
01E4 7F14           6077             MOV     R7,#014H
01E6                6078     ?C0415:
01E6 020000   F     6079             LJMP    _LightEffect1
                    6080     ;                                                       case '=':colorWipe(255, 255); break
                             ;
                    6081                             ; SOURCE LINE # 1048
01E9                6082     ?C0249:
01E9                6083     ?C0414:
                    6084     ;                                                       case '>':colorWipe(255, 255); break
                             ;
                    6085                             ; SOURCE LINE # 1049
01E9                6086     ?C0416:
A51 MACRO ASSEMBLER  TEXT1                                                                01/10/2019 19:42:26 PAGE    95

01E9 900000   F     6087             MOV     DPTR,#?_colorWipe?BYTE+04H
01EC E4             6088             CLR     A
01ED F0             6089             MOVX    @DPTR,A
01EE A3             6090             INC     DPTR
01EF 74FF           6091             MOV     A,#0FFH
01F1 F0             6092             MOVX    @DPTR,A
01F2 FF             6093             MOV     R7,A
01F3 7E00           6094             MOV     R6,#00H
01F5 7D00           6095             MOV     R5,#00H
01F7 7C00           6096             MOV     R4,#00H
01F9 020000   F     6097             LJMP    _colorWipe
                    6098     ;                                                       case '?':LightEffect1_8(); break;
                    6099                             ; SOURCE LINE # 1050
01FC                6100     ?C0251:
01FC 120000   F     6101             LCALL   LightEffect1_8
                    6102     ;                                                       default:break;
                    6103                             ; SOURCE LINE # 1051
                    6104     ;                                                       }
                    6105                             ; SOURCE LINE # 1052
                    6106     ;                                               }
                    6107                             ; SOURCE LINE # 1053
01FF                6108     ?C0253:
01FF 22             6109             RET     
                    6110     ; END OF _LightControll
                    6111     
                    6112     ; 
                    6113     ; 
                    6114     ; 
                    6115     ; 
                    6116     ; 
                    6117     ; 
                    6118     ; 
                    6119     ; //===================================7279========================
                             ===================
                    6120     ; 
                    6121     ; 
                    6122     ; //=======================================================================================
                             ==
                    6123     ; void long_delay(void)
                    6124     
----                6125             RSEG  ?PR?long_delay?TEXT1
0000                6126     long_delay:
                    6127             USING   0
                    6128                             ; SOURCE LINE # 1065
                    6129     ;    {
                    6130                             ; SOURCE LINE # 1066
                    6131     ;    uchar i;
                    6132     ;    for (i=0;i<0x30;i++){;}    //00110000
                    6133                             ; SOURCE LINE # 1068
                    6134     ;---- Variable 'i?30111' assigned to Register 'R7' ----
0000 E4             6135             CLR     A
0001 FF             6136             MOV     R7,A
0002                6137     ?C0254:
0002 0F             6138             INC     R7
0003 EF             6139             MOV     A,R7
0004 B430FB         6140             CJNE    A,#030H,?C0254
                    6141     ;    }
                    6142                             ; SOURCE LINE # 1069
0007                6143     ?C0257:
0007 22             6144             RET     
                    6145     ; END OF long_delay
                    6146     
                    6147     ; 
                    6148     ; void short_delay(void)
                    6149     
----                6150             RSEG  ?PR?short_delay?TEXT1
A51 MACRO ASSEMBLER  TEXT1                                                                01/10/2019 19:42:26 PAGE    96

0000                6151     short_delay:
                    6152             USING   0
                    6153                             ; SOURCE LINE # 1071
                    6154     ;    {
                    6155                             ; SOURCE LINE # 1072
                    6156     ;    uchar i;
                    6157     ;    for (i=0;i<8;i++){;}
                    6158                             ; SOURCE LINE # 1074
                    6159     ;---- Variable 'i?31112' assigned to Register 'R7' ----
0000 E4             6160             CLR     A
0001 FF             6161             MOV     R7,A
0002                6162     ?C0258:
0002 0F             6163             INC     R7
0003 EF             6164             MOV     A,R7
0004 B408FB         6165             CJNE    A,#08H,?C0258
                    6166     ;    }          
                    6167                             ; SOURCE LINE # 1075
0007                6168     ?C0261:
0007 22             6169             RET     
                    6170     ; END OF short_delay
                    6171     
                    6172     ; 
                    6173     ; 
                    6174     ; //7279
                    6175     ; void SendByteTo7279(uchar out_byte)
                    6176     
----                6177             RSEG  ?PR?_SendByteTo7279?TEXT1
0000                6178     _SendByteTo7279:
                    6179             USING   0
                    6180                             ; SOURCE LINE # 1079
                    6181     ;---- Variable 'out_byte?32113' assigned to Register 'R6' ----
0000 AE07           6182             MOV     R6,AR7
                    6183     ;    {
                    6184                             ; SOURCE LINE # 1080
                    6185     ;    uchar i;
                    6186     ;    cs = 0; long_delay();//
                    6187                             ; SOURCE LINE # 1082
0002 C296           6188             CLR     cs
0004 120000   F     6189             LCALL   long_delay
                    6190     ;    for (i=0;i<8;i++)
                    6191                             ; SOURCE LINE # 1083
                    6192     ;---- Variable 'i?32114' assigned to Register 'R5' ----
0007 E4             6193             CLR     A
0008 FD             6194             MOV     R5,A
0009                6195     ?C0262:
                    6196     ;       {
                    6197                             ; SOURCE LINE # 1084
                    6198     ;         if (out_byte & 0x80) { dat = 1; } //10000000
                    6199                             ; SOURCE LINE # 1085
0009 EE             6200             MOV     A,R6
000A 30E704         6201             JNB     ACC.7,?C0265
000D D294           6202             SETB    dat
000F 8002           6203             SJMP    ?C0266
0011                6204     ?C0265:
                    6205     ;         else { dat = 0; }                        //dat
                    6206                             ; SOURCE LINE # 1086
0011 C294           6207             CLR     dat
0013                6208     ?C0266:
                    6209     ;         //,
                    6210     ;         clk = 1; short_delay(); clk = 0; short_delay();
                    6211                             ; SOURCE LINE # 1088
0013 D297           6212             SETB    clk
0015 120000   F     6213             LCALL   short_delay
0018 C297           6214             CLR     clk
001A 120000   F     6215             LCALL   short_delay
                    6216     ;         out_byte = out_byte*2;
A51 MACRO ASSEMBLER  TEXT1                                                                01/10/2019 19:42:26 PAGE    97

                    6217                             ; SOURCE LINE # 1089
001D EE             6218             MOV     A,R6
001E 25E0           6219             ADD     A,ACC
0020 FE             6220             MOV     R6,A
                    6221     ;       }
                    6222                             ; SOURCE LINE # 1090
0021 0D             6223             INC     R5
0022 ED             6224             MOV     A,R5
0023 B408E3         6225             CJNE    A,#08H,?C0262
0026                6226     ?C0263:
                    6227     ;    dat = 0;
                    6228                             ; SOURCE LINE # 1091
0026 C294           6229             CLR     dat
                    6230     ;    }
                    6231                             ; SOURCE LINE # 1092
0028 22             6232             RET     
                    6233     ; END OF _SendByteTo7279
                    6234     
                    6235     ;    
                    6236     ; //7279
                    6237     ; unsigned char ReceivedByteToMCU()
                    6238     
----                6239             RSEG  ?PR?ReceivedByteToMCU?TEXT1
0000                6240     ReceivedByteToMCU:
                    6241             USING   0
                    6242                             ; SOURCE LINE # 1095
                    6243     ; {
                    6244                             ; SOURCE LINE # 1096
                    6245     ;       unsigned char i, in_byte;
                    6246     ;       dat = 1;   
                    6247                             ; SOURCE LINE # 1098
0000 D294           6248             SETB    dat
                    6249     ;       long_delay(); in_byte = 0;
                    6250                             ; SOURCE LINE # 1099
0002 120000   F     6251             LCALL   long_delay
                    6252     ;---- Variable 'in_byte?33116' assigned to Register 'R6' ----
0005 E4             6253             CLR     A
0006 FE             6254             MOV     R6,A
                    6255     ;       for (i=0;i<8;i++)
                    6256                             ; SOURCE LINE # 1100
                    6257     ;---- Variable 'i?33115' assigned to Register 'R5' ----
0007 FD             6258             MOV     R5,A
0008                6259     ?C0268:
                    6260     ;       {
                    6261                             ; SOURCE LINE # 1101
                    6262     ;               clk = 1; short_delay(); in_byte = in_byte*2;
                    6263                             ; SOURCE LINE # 1102
0008 D297           6264             SETB    clk
000A 120000   F     6265             LCALL   short_delay
000D EE             6266             MOV     A,R6
000E 25E0           6267             ADD     A,ACC
0010 FE             6268             MOV     R6,A
                    6269     ;               if (dat) { in_byte = in_byte|0x01; }
                    6270                             ; SOURCE LINE # 1103
0011 309403         6271             JNB     dat,?C0271
0014 4401           6272             ORL     A,#01H
0016 FE             6273             MOV     R6,A
0017                6274     ?C0271:
                    6275     ;               clk = 0; short_delay();
                    6276                             ; SOURCE LINE # 1104
0017 C297           6277             CLR     clk
0019 120000   F     6278             LCALL   short_delay
                    6279     ;       }
                    6280                             ; SOURCE LINE # 1105
001C 0D             6281             INC     R5
001D ED             6282             MOV     A,R5
A51 MACRO ASSEMBLER  TEXT1                                                                01/10/2019 19:42:26 PAGE    98

001E B408E7         6283             CJNE    A,#08H,?C0268
0021                6284     ?C0269:
                    6285     ;       dat = 0; 
                    6286                             ; SOURCE LINE # 1106
0021 C294           6287             CLR     dat
                    6288     ;       return(in_byte);
                    6289                             ; SOURCE LINE # 1107
0023 AF06           6290             MOV     R7,AR6
                    6291     ; }
                    6292                             ; SOURCE LINE # 1108
0025                6293     ?C0272:
0025 22             6294             RET     
                    6295     ; END OF ReceivedByteToMCU
                    6296     
                    6297     ; 
                    6298     ; // 
                    6299     ; unsigned char key_read()
                    6300     
----                6301             RSEG  ?PR?key_read?TEXT1
0000                6302     key_read:
                    6303             USING   0
                    6304                             ; SOURCE LINE # 1111
                    6305     ; {
                    6306                             ; SOURCE LINE # 1112
                    6307     ;       SendByteTo7279(0x15); //15H7279
                    6308                             ; SOURCE LINE # 1113
0000 7F15           6309             MOV     R7,#015H
0002 120000   F     6310             LCALL   _SendByteTo7279
                    6311     ;       return(ReceivedByteToMCU());
                    6312                             ; SOURCE LINE # 1114
0005 120000   F     6313             LCALL   ReceivedByteToMCU
                    6314     ; }
                    6315                             ; SOURCE LINE # 1115
0008                6316     ?C0273:
0008 22             6317             RET     
                    6318     ; END OF key_read
                    6319     
                    6320     ; 
                    6321     ; //======================
                    6322     ;       
                    6323     ; 
                    6324     ; void delayms(uint x)
                    6325     
----                6326             RSEG  ?PR?_delayms?TEXT1
0000                6327     _delayms:
                    6328             USING   0
                    6329                             ; SOURCE LINE # 1120
                    6330     ;---- Variable 'x?35117' assigned to Register 'R6/R7' ----
                    6331     ; {
                    6332                             ; SOURCE LINE # 1121
                    6333     ;       uint i;
                    6334     ;       uint j;
                    6335     ;       for(i=0;i<x;i++)
                    6336                             ; SOURCE LINE # 1124
                    6337     ;---- Variable 'i?35118' assigned to Register 'R4/R5' ----
0000 E4             6338             CLR     A
0001 FD             6339             MOV     R5,A
0002 FC             6340             MOV     R4,A
0003                6341     ?C0274:
0003 C3             6342             CLR     C
0004 ED             6343             MOV     A,R5
0005 9F             6344             SUBB    A,R7
0006 EC             6345             MOV     A,R4
0007 9E             6346             SUBB    A,R6
0008 5015           6347             JNC     ?C0280
                    6348     ;               for(j=0;j<335;j++)
A51 MACRO ASSEMBLER  TEXT1                                                                01/10/2019 19:42:26 PAGE    99

                    6349                             ; SOURCE LINE # 1125
                    6350     ;---- Variable 'j?35119' assigned to Register 'R2/R3' ----
000A E4             6351             CLR     A
000B FB             6352             MOV     R3,A
000C FA             6353             MOV     R2,A
000D                6354     ?C0277:
                    6355     ;                       {;}
                    6356                             ; SOURCE LINE # 1126
000D 0B             6357             INC     R3
000E BB0001         6358             CJNE    R3,#00H,?C0351
0011 0A             6359             INC     R2
0012                6360     ?C0351:
0012 BA01F8         6361             CJNE    R2,#01H,?C0277
0015 BB4FF5         6362             CJNE    R3,#04FH,?C0277
0018                6363     ?C0276:
0018 0D             6364             INC     R5
0019 BD0001         6365             CJNE    R5,#00H,?C0352
001C 0C             6366             INC     R4
001D                6367     ?C0352:
001D 80E4           6368             SJMP    ?C0274
                    6369     ; }
                    6370                             ; SOURCE LINE # 1127
001F                6371     ?C0280:
001F 22             6372             RET     
                    6373     ; END OF _delayms
                    6374     
                    6375     ; void SendByte2Computer(uchar dataa)
                    6376     
----                6377             RSEG  ?PR?_SendByte2Computer?TEXT1
0000                6378     _SendByte2Computer:
                    6379                             ; SOURCE LINE # 1128
                    6380     ;---- Variable 'dataa?36120' assigned to Register 'R7' ----
                    6381     ; {
                    6382                             ; SOURCE LINE # 1129
                    6383     ;       SBUF=dataa;
                    6384                             ; SOURCE LINE # 1130
0000 8F99           6385             MOV     SBUF,R7
0002                6386     ?C0281:
                    6387     ;       while(TI==0);
                    6388                             ; SOURCE LINE # 1131
0002 3099FD         6389             JNB     TI,?C0281
0005                6390     ?C0282:
                    6391     ;       
                    6392     ;       TI=0;//
                    6393                             ; SOURCE LINE # 1133
0005 C299           6394             CLR     TI
                    6395     ; }
                    6396                             ; SOURCE LINE # 1134
0007 22             6397             RET     
                    6398     ; END OF _SendByte2Computer
                    6399     
                    6400     ; void SendBytes2Computer(unsigned char * datas)
                    6401     
----                6402             RSEG  ?PR?_SendBytes2Computer?TEXT1
0000                6403     _SendBytes2Computer:
                    6404             USING   0
                    6405                             ; SOURCE LINE # 1135
                    6406     ;---- Variable 'datas?37121' assigned to Register 'R1/R2/R3' ----
                    6407     ; {
                    6408                             ; SOURCE LINE # 1136
                    6409     ;       //int i;
                    6410     ;       uchar* dd=datas;
                    6411                             ; SOURCE LINE # 1138
                    6412     ;---- Variable 'dd?37122' assigned to Register 'R1/R2/R3' ----
0000                6413     ?C0284:
                    6414     ;       while( *dd != '\0')
A51 MACRO ASSEMBLER  TEXT1                                                                01/10/2019 19:42:26 PAGE   100

                    6415                             ; SOURCE LINE # 1139
0000 120000   F     6416             LCALL   ?C?CLDPTR
0003 FF             6417             MOV     R7,A
0004 600C           6418             JZ      ?C0286
                    6419     ;       //for(i=0;i<3;i++)
                    6420     ;       {
                    6421                             ; SOURCE LINE # 1141
                    6422     ;               SendByte2Computer(*dd);
                    6423                             ; SOURCE LINE # 1142
0006 120000   F     6424             LCALL   _SendByte2Computer
                    6425     ;               dd+=1;
                    6426                             ; SOURCE LINE # 1143
0009 7401           6427             MOV     A,#01H
000B 29             6428             ADD     A,R1
000C F9             6429             MOV     R1,A
000D E4             6430             CLR     A
000E 3A             6431             ADDC    A,R2
000F FA             6432             MOV     R2,A
                    6433     ;               //SendByte(datas[i]);
                    6434     ;               
                    6435     ;               
                    6436     ;       }
                    6437                             ; SOURCE LINE # 1147
0010 80EE           6438             SJMP    ?C0284
                    6439     ; }
                    6440                             ; SOURCE LINE # 1148
0012                6441     ?C0286:
0012 22             6442             RET     
                    6443     ; END OF _SendBytes2Computer
                    6444     
                    6445     ; 
                    6446     ; void UartInit(void)           //9600bps@18.432MHz
                    6447     
----                6448             RSEG  ?PR?UartInit?TEXT1
0000                6449     UartInit:
                    6450                             ; SOURCE LINE # 1150
                    6451     ; {
                    6452                             ; SOURCE LINE # 1151
                    6453     ;       SCON = 0x50;            //8,
                    6454                             ; SOURCE LINE # 1152
0000 759850         6455             MOV     SCON,#050H
                    6456     ;       AUXR |= 0x40;           //1Fosc,1T
                    6457                             ; SOURCE LINE # 1153
0003 438E40         6458             ORL     AUXR,#040H
                    6459     ;       AUXR &= 0xFE;           //11
                    6460                             ; SOURCE LINE # 1154
0006 538EFE         6461             ANL     AUXR,#0FEH
                    6462     ;       TMOD &= 0x0F;           //116
                    6463                             ; SOURCE LINE # 1155
0009 53890F         6464             ANL     TMOD,#0FH
                    6465     ;       TL1 = 0x20;             //
                    6466                             ; SOURCE LINE # 1156
000C 758B20         6467             MOV     TL1,#020H
                    6468     ;       TH1 = 0xFE;             //
                    6469                             ; SOURCE LINE # 1157
000F 758DFE         6470             MOV     TH1,#0FEH
                    6471     ;       ET1 = 0;                //1
                    6472                             ; SOURCE LINE # 1158
0012 C2AB           6473             CLR     ET1
                    6474     ;       TR1 = 1;                //1
                    6475                             ; SOURCE LINE # 1159
0014 D28E           6476             SETB    TR1
                    6477     ; }
                    6478                             ; SOURCE LINE # 1160
0016 22             6479             RET     
                    6480     ; END OF UartInit
A51 MACRO ASSEMBLER  TEXT1                                                                01/10/2019 19:42:26 PAGE   101

                    6481     
                    6482     ; 
                    6483     ; 
                    6484     ; 
                    6485     ; void Delay1ms(uchar k)                //@18.432MHz
                    6486     
----                6487             RSEG  ?PR?_Delay1ms?TEXT1
0000                6488     _Delay1ms:
                    6489             USING   0
                    6490                             ; SOURCE LINE # 1164
                    6491     ;---- Variable 'k?39123' assigned to Register 'R7' ----
                    6492     ; {
                    6493                             ; SOURCE LINE # 1165
                    6494     ;       unsigned char i, j,mm;
                    6495     ;       for(mm=0;mm<k;mm++){
                    6496                             ; SOURCE LINE # 1167
                    6497     ;---- Variable 'mm?39126' assigned to Register 'R6' ----
0000 E4             6498             CLR     A
0001 FE             6499             MOV     R6,A
0002                6500     ?C0288:
0002 EE             6501             MOV     A,R6
0003 C3             6502             CLR     C
0004 9F             6503             SUBB    A,R7
0005 500D           6504             JNC     ?C0296
                    6505     ;       _nop_();
                    6506                             ; SOURCE LINE # 1168
0007 00             6507             NOP     
                    6508     ;       _nop_();
                    6509                             ; SOURCE LINE # 1169
0008 00             6510             NOP     
                    6511     ;       i = 22;
                    6512                             ; SOURCE LINE # 1170
                    6513     ;---- Variable 'i?39124' assigned to Register 'R5' ----
0009 7D16           6514             MOV     R5,#016H
                    6515     ;       j = 128;
                    6516                             ; SOURCE LINE # 1171
                    6517     ;---- Variable 'j?39125' assigned to Register 'R4' ----
000B 7C80           6518             MOV     R4,#080H
                    6519     ;       do
                    6520     ;       {
                    6521                             ; SOURCE LINE # 1173
000D                6522     ?C0294:
                    6523     ;               while (--j);
                    6524                             ; SOURCE LINE # 1174
000D DCFE           6525             DJNZ    R4,?C0294
000F                6526     ?C0295:
                    6527     ;       } while (--i);
                    6528                             ; SOURCE LINE # 1175
000F                6529     ?C0291:
000F DDFC           6530             DJNZ    R5,?C0294
                    6531     ; }}
                    6532                             ; SOURCE LINE # 1176
0011 0E             6533             INC     R6
0012 80EE           6534             SJMP    ?C0288
0014                6535     ?C0296:
0014 22             6536             RET     
                    6537     ; END OF _Delay1ms
                    6538     
                    6539     ; 
                    6540     ; 
                    6541     ; 
                    6542     ; 
                    6543     ; void main()
                    6544     
----                6545             RSEG  ?PR?main?TEXT1
0000                6546     main:
A51 MACRO ASSEMBLER  TEXT1                                                                01/10/2019 19:42:26 PAGE   102

                    6547             USING   0
                    6548                             ; SOURCE LINE # 1181
                    6549     ; {
                    6550                             ; SOURCE LINE # 1182
                    6551     ; unsigned char KeyValue;
                    6552     ; UartInit();
                    6553                             ; SOURCE LINE # 1184
0000 120000   F     6554             LCALL   UartInit
0003                6555     ?C0297:
                    6556     ; 
                    6557     ; //rainbowCycle(40);
                    6558     ; while(1)
                    6559                             ; SOURCE LINE # 1187
                    6560     ; {
                    6561                             ; SOURCE LINE # 1188
                    6562     ;       
                    6563     ;       //RGB_Set_Up();
                    6564     ;       //RGB_Set_Down();
                    6565     ;       //SetPointColour(2,255,0,0);
                    6566     ;       
                    6567     ;       KeyValue=key_read();
                    6568                             ; SOURCE LINE # 1194
0003 120000   F     6569             LCALL   key_read
0006 900000   F     6570             MOV     DPTR,#KeyValue?40127
0009 EF             6571             MOV     A,R7
000A F0             6572             MOVX    @DPTR,A
                    6573     ;       SendByte2Computer(KeyValue);
                    6574                             ; SOURCE LINE # 1195
000B 120000   F     6575             LCALL   _SendByte2Computer
                    6576     ;       LightControll(KeyValue);
                    6577                             ; SOURCE LINE # 1196
000E E0             6578             MOVX    A,@DPTR
000F FF             6579             MOV     R7,A
0010 120000   F     6580             LCALL   _LightControll
                    6581     ;       Delay1ms(100);
                    6582                             ; SOURCE LINE # 1197
0013 7F64           6583             MOV     R7,#064H
0015 120000   F     6584             LCALL   _Delay1ms
                    6585     ; 
                    6586     ; 
                    6587     ; 
                    6588     ; }
                    6589                             ; SOURCE LINE # 1201
0018 80E9           6590             SJMP    ?C0297
                    6591     ; END OF main
                    6592     
                    6593     ; 
                    6594     ; 
                    6595     ; 
                    6596     ; }
                    6597     ; 
                    6598     ; //12MHz
                    6599     ; //R7dataa,R6RLC
                    6600     ; void ws2812asm(unsigned char dataa)
                    6601     
----                6602             RSEG  ?PR?_ws2812asm?TEXT1
0000                6603     _ws2812asm:
                    6604             USING   0
                    6605                             ; SOURCE LINE # 1209
0000 900000   F     6606             MOV     DPTR,#dataa?41128
0003 EF             6607             MOV     A,R7
0004 F0             6608             MOVX    @DPTR,A
                    6609     ; {
                    6610                             ; SOURCE LINE # 1210
                    6611     ; #pragma asm
                    6612     ;       MOV A, R7       
A51 MACRO ASSEMBLER  TEXT1                                                                01/10/2019 19:42:26 PAGE   103

0005 EF             6613               MOV A, R7       
                    6614     ;       MOV R6, #0x08   
0006 7E08           6615               MOV R6, #0x08   
                    6616     ; WS2812LOOP:
0008                6617               WS2812LOOP:
                    6618     ;       SETB P3.7
0008 D2B7           6619               SETB P3.7
                    6620     ;       RLC A
000A 33             6621               RLC A
                    6622     ;       MOV P3.7, C
000B 92B7           6623               MOV P3.7, C
                    6624     ;       NOP
000D 00             6625               NOP
                    6626     ;       CLR P3.7
000E C2B7           6627               CLR P3.7
                    6628     ;       DJNZ R6, WS2812LOOP
0010 DEF6           6629               DJNZ R6, WS2812LOOP
                    6630     ; #pragma endasm
                    6631     ; }
                    6632                             ; SOURCE LINE # 1222
0012 22             6633             RET     
                    6634     ; END OF _ws2812asm
                    6635     
                    6636             END
A51 MACRO ASSEMBLER  TEXT1                                                                01/10/2019 19:42:26 PAGE   104

SYMBOL TABLE LISTING
------ ----- -------


N A M E                           T Y P E  V A L U E   ATTRIBUTES

?C0001 . . . . . . . . . . . . .  C ADDR   0009H   R   SEG=?PR?_HAL_DELAY?TEXT1
?C0003 . . . . . . . . . . . . .  C ADDR   001DH   R   SEG=?PR?_HAL_DELAY?TEXT1
?C0004 . . . . . . . . . . . . .  C ADDR   000DH   R   SEG=?PR?_HAL_DELAY?TEXT1
?C0007 . . . . . . . . . . . . .  C ADDR   0026H   R   SEG=?PR?_HAL_DELAY?TEXT1
?C0008 . . . . . . . . . . . . .  C ADDR   0007H   R   SEG=?PR?RESET?TEXT1
?C0011 . . . . . . . . . . . . .  C ADDR   0038H   R   SEG=?PR?RESET?TEXT1
?C0012 . . . . . . . . . . . . .  C ADDR   0008H   R   SEG=?PR?DELAY50US?TEXT1
?C0015 . . . . . . . . . . . . .  C ADDR   0006H   R   SEG=?PR?DELAY50US?TEXT1
?C0016 . . . . . . . . . . . . .  C ADDR   0008H   R   SEG=?PR?DELAY50US?TEXT1
?C0020 . . . . . . . . . . . . .  C ADDR   0029H   R   SEG=?PR?_SEND_2811_24BITS?TEXT1
?C0021 . . . . . . . . . . . . .  C ADDR   004CH   R   SEG=?PR?_SEND_2811_24BITS?TEXT1
?C0022 . . . . . . . . . . . . .  C ADDR   0041H   R   SEG=?PR?_SEND_2811_24BITS?TEXT1
?C0023 . . . . . . . . . . . . .  C ADDR   003EH   R   SEG=?PR?_SEND_2811_24BITS?TEXT1
?C0025 . . . . . . . . . . . . .  C ADDR   004FH   R   SEG=?PR?_SEND_2811_24BITS?TEXT1
?C0026 . . . . . . . . . . . . .  C ADDR   0072H   R   SEG=?PR?_SEND_2811_24BITS?TEXT1
?C0027 . . . . . . . . . . . . .  C ADDR   0067H   R   SEG=?PR?_SEND_2811_24BITS?TEXT1
?C0028 . . . . . . . . . . . . .  C ADDR   0064H   R   SEG=?PR?_SEND_2811_24BITS?TEXT1
?C0030 . . . . . . . . . . . . .  C ADDR   0075H   R   SEG=?PR?_SEND_2811_24BITS?TEXT1
?C0032 . . . . . . . . . . . . .  C ADDR   008DH   R   SEG=?PR?_SEND_2811_24BITS?TEXT1
?C0033 . . . . . . . . . . . . .  C ADDR   008AH   R   SEG=?PR?_SEND_2811_24BITS?TEXT1
?C0035 . . . . . . . . . . . . .  C ADDR   0098H   R   SEG=?PR?_SEND_2811_24BITS?TEXT1
?C0037 . . . . . . . . . . . . .  C ADDR   0002H   R   SEG=?PR?_SET_COLOUR?TEXT1
?C0038 . . . . . . . . . . . . .  C ADDR   002BH   R   SEG=?PR?_SET_COLOUR?TEXT1
?C0040 . . . . . . . . . . . . .  C ADDR   002DH   R   SEG=?PR?_SET_COLOUR?TEXT1
?C0043 . . . . . . . . . . . . .  C ADDR   0035H   R   SEG=?PR?_SET_COLOUR?TEXT1
?C0044 . . . . . . . . . . . . .  C ADDR   000CH   R   SEG=?PR?_SETPOINTCOLOUR?TEXT1
?C0045 . . . . . . . . . . . . .  C ADDR   003FH   R   SEG=?PR?_SETPOINTCOLOUR?TEXT1
?C0047 . . . . . . . . . . . . .  C ADDR   0041H   R   SEG=?PR?_SETPOINTCOLOUR?TEXT1
?C0050 . . . . . . . . . . . . .  C ADDR   0049H   R   SEG=?PR?_SETPOINTCOLOUR?TEXT1
?C0051 . . . . . . . . . . . . .  C ADDR   0004H   R   SEG=?PR?_SETPIXELCOLOR?TEXT1
?C0052 . . . . . . . . . . . . .  C ADDR   005BH   R   SEG=?PR?_SETPIXELCOLOR?TEXT1
?C0054 . . . . . . . . . . . . .  C ADDR   005DH   R   SEG=?PR?_SETPIXELCOLOR?TEXT1
?C0057 . . . . . . . . . . . . .  C ADDR   0065H   R   SEG=?PR?_SETPIXELCOLOR?TEXT1
?C0058 . . . . . . . . . . . . .  C ADDR   0004H   R   SEG=?PR?_SENTPIXELCOLOR?TEXT1
?C0059 . . . . . . . . . . . . .  C ADDR   005BH   R   SEG=?PR?_SENTPIXELCOLOR?TEXT1
?C0061 . . . . . . . . . . . . .  C ADDR   005DH   R   SEG=?PR?_SENTPIXELCOLOR?TEXT1
?C0064 . . . . . . . . . . . . .  C ADDR   0065H   R   SEG=?PR?_SENTPIXELCOLOR?TEXT1
?C0066 . . . . . . . . . . . . .  C ADDR   005BH   R   SEG=?PR?_COLOR?TEXT1
?C0067 . . . . . . . . . . . . .  C ADDR   001EH   R   SEG=?PR?_WHEEL?TEXT1
?C0068 . . . . . . . . . . . . .  C ADDR   0051H   R   SEG=?PR?_WHEEL?TEXT1
?C0069 . . . . . . . . . . . . .  C ADDR   003AH   R   SEG=?PR?_WHEEL?TEXT1
?C0070 . . . . . . . . . . . . .  C ADDR   000FH   R   SEG=?PR?_RAINBOW?TEXT1
?C0071 . . . . . . . . . . . . .  C ADDR   0075H   R   SEG=?PR?_RAINBOW?TEXT1
?C0073 . . . . . . . . . . . . .  C ADDR   0016H   R   SEG=?PR?_RAINBOW?TEXT1
?C0074 . . . . . . . . . . . . .  C ADDR   004FH   R   SEG=?PR?_RAINBOW?TEXT1
?C0077 . . . . . . . . . . . . .  C ADDR   000FH   R   SEG=?PR?_RAINBOWCYCLE?TEXT1
?C0080 . . . . . . . . . . . . .  C ADDR   0016H   R   SEG=?PR?_RAINBOWCYCLE?TEXT1
?C0081 . . . . . . . . . . . . .  C ADDR   005CH   R   SEG=?PR?_RAINBOWCYCLE?TEXT1
?C0083 . . . . . . . . . . . . .  C ADDR   007CH   R   SEG=?PR?_RAINBOWCYCLE?TEXT1
?C0084 . . . . . . . . . . . . .  C ADDR   0016H   R   SEG=?PR?_THEATERCHASE?TEXT1
?C0086 . . . . . . . . . . . . .  C ADDR   00D7H   R   SEG=?PR?_THEATERCHASE?TEXT1
?C0087 . . . . . . . . . . . . .  C ADDR   001DH   R   SEG=?PR?_THEATERCHASE?TEXT1
?C0090 . . . . . . . . . . . . .  C ADDR   0024H   R   SEG=?PR?_THEATERCHASE?TEXT1
?C0091 . . . . . . . . . . . . .  C ADDR   0068H   R   SEG=?PR?_THEATERCHASE?TEXT1
?C0093 . . . . . . . . . . . . .  C ADDR   0078H   R   SEG=?PR?_THEATERCHASE?TEXT1
?C0094 . . . . . . . . . . . . .  C ADDR   00B2H   R   SEG=?PR?_THEATERCHASE?TEXT1
?C0096 . . . . . . . . . . . . .  C ADDR   00F9H   R   SEG=?PR?_THEATERCHASE?TEXT1
?C0097 . . . . . . . . . . . . .  C ADDR   000DH   R   SEG=?PR?_THEATERCHASERAINBOW?TEXT1
?C0098 . . . . . . . . . . . . .  C ADDR   00F7H   R   SEG=?PR?_THEATERCHASERAINBOW?TEXT1
?C0099 . . . . . . . . . . . . .  C ADDR   00D5H   R   SEG=?PR?_THEATERCHASERAINBOW?TEXT1
A51 MACRO ASSEMBLER  TEXT1                                                                01/10/2019 19:42:26 PAGE   105

?C0100 . . . . . . . . . . . . .  C ADDR   0014H   R   SEG=?PR?_THEATERCHASERAINBOW?TEXT1
?C0102 . . . . . . . . . . . . .  C ADDR   00B3H   R   SEG=?PR?_THEATERCHASERAINBOW?TEXT1
?C0103 . . . . . . . . . . . . .  C ADDR   001BH   R   SEG=?PR?_THEATERCHASERAINBOW?TEXT1
?C0104 . . . . . . . . . . . . .  C ADDR   0069H   R   SEG=?PR?_THEATERCHASERAINBOW?TEXT1
?C0106 . . . . . . . . . . . . .  C ADDR   0079H   R   SEG=?PR?_THEATERCHASERAINBOW?TEXT1
?C0110 . . . . . . . . . . . . .  C ADDR   0013H   R   SEG=?PR?_COLORWIPE?TEXT1
?C0111 . . . . . . . . . . . . .  C ADDR   0051H   R   SEG=?PR?_COLORWIPE?TEXT1
?C0114 . . . . . . . . . . . . .  C ADDR   0000H   R   SEG=?PR?ZIDINGYI1?TEXT1
?C0118 . . . . . . . . . . . . .  C ADDR   0007H   R   SEG=?PR?LIGHTEFFECT1_1?TEXT1
?C0119 . . . . . . . . . . . . .  C ADDR   00BCH   R   SEG=?PR?LIGHTEFFECT1_1?TEXT1
?C0120 . . . . . . . . . . . . .  C ADDR   00ABH   R   SEG=?PR?LIGHTEFFECT1_1?TEXT1
?C0121 . . . . . . . . . . . . .  C ADDR   0022H   R   SEG=?PR?LIGHTEFFECT1_1?TEXT1
?C0124 . . . . . . . . . . . . .  C ADDR   00C3H   R   SEG=?PR?LIGHTEFFECT1_1?TEXT1
?C0127 . . . . . . . . . . . . .  C ADDR   0111H   R   SEG=?PR?LIGHTEFFECT1_1?TEXT1
?C0128 . . . . . . . . . . . . .  C ADDR   0007H   R   SEG=?PR?LIGHTEFFECT1_8?TEXT1
?C0129 . . . . . . . . . . . . .  C ADDR   00C9H   R   SEG=?PR?LIGHTEFFECT1_8?TEXT1
?C0130 . . . . . . . . . . . . .  C ADDR   00B8H   R   SEG=?PR?LIGHTEFFECT1_8?TEXT1
?C0131 . . . . . . . . . . . . .  C ADDR   0022H   R   SEG=?PR?LIGHTEFFECT1_8?TEXT1
?C0134 . . . . . . . . . . . . .  C ADDR   00D0H   R   SEG=?PR?LIGHTEFFECT1_8?TEXT1
?C0137 . . . . . . . . . . . . .  C ADDR   0125H   R   SEG=?PR?LIGHTEFFECT1_8?TEXT1
?C0138 . . . . . . . . . . . . .  C ADDR   0007H   R   SEG=?PR?LIGHTEFFECT8_1?TEXT1
?C0139 . . . . . . . . . . . . .  C ADDR   00C9H   R   SEG=?PR?LIGHTEFFECT8_1?TEXT1
?C0140 . . . . . . . . . . . . .  C ADDR   00B8H   R   SEG=?PR?LIGHTEFFECT8_1?TEXT1
?C0141 . . . . . . . . . . . . .  C ADDR   0022H   R   SEG=?PR?LIGHTEFFECT8_1?TEXT1
?C0144 . . . . . . . . . . . . .  C ADDR   00D0H   R   SEG=?PR?LIGHTEFFECT8_1?TEXT1
?C0147 . . . . . . . . . . . . .  C ADDR   0127H   R   SEG=?PR?LIGHTEFFECT8_1?TEXT1
?C0148 . . . . . . . . . . . . .  C ADDR   0007H   R   SEG=?PR?LIGHTEFFECT8_8?TEXT1
?C0149 . . . . . . . . . . . . .  C ADDR   00A3H   R   SEG=?PR?LIGHTEFFECT8_8?TEXT1
?C0150 . . . . . . . . . . . . .  C ADDR   0092H   R   SEG=?PR?LIGHTEFFECT8_8?TEXT1
?C0151 . . . . . . . . . . . . .  C ADDR   0022H   R   SEG=?PR?LIGHTEFFECT8_8?TEXT1
?C0154 . . . . . . . . . . . . .  C ADDR   00AAH   R   SEG=?PR?LIGHTEFFECT8_8?TEXT1
?C0157 . . . . . . . . . . . . .  C ADDR   0101H   R   SEG=?PR?LIGHTEFFECT8_8?TEXT1
?C0158 . . . . . . . . . . . . .  C ADDR   000EH   R   SEG=?PR?GETNUM?TEXT1
?C0159 . . . . . . . . . . . . .  C ADDR   0007H   R   SEG=?PR?LIGHTSUNSHINEWITHMUSIC?TEXT1
?C0161 . . . . . . . . . . . . .  C ADDR   017DH   R   SEG=?PR?LIGHTSUNSHINEWITHMUSIC?TEXT1
?C0162 . . . . . . . . . . . . .  C ADDR   001EH   R   SEG=?PR?LIGHTSUNSHINEWITHMUSIC?TEXT1
?C0164 . . . . . . . . . . . . .  C ADDR   016CH   R   SEG=?PR?LIGHTSUNSHINEWITHMUSIC?TEXT1
?C0165 . . . . . . . . . . . . .  C ADDR   0083H   R   SEG=?PR?LIGHTSUNSHINEWITHMUSIC?TEXT1
?C0167 . . . . . . . . . . . . .  C ADDR   00B1H   R   SEG=?PR?LIGHTSUNSHINEWITHMUSIC?TEXT1
?C0170 . . . . . . . . . . . . .  C ADDR   00E4H   R   SEG=?PR?LIGHTSUNSHINEWITHMUSIC?TEXT1
?C0171 . . . . . . . . . . . . .  C ADDR   00F8H   R   SEG=?PR?LIGHTSUNSHINEWITHMUSIC?TEXT1
?C0172 . . . . . . . . . . . . .  C ADDR   010BH   R   SEG=?PR?LIGHTSUNSHINEWITHMUSIC?TEXT1
?C0173 . . . . . . . . . . . . .  C ADDR   011FH   R   SEG=?PR?LIGHTSUNSHINEWITHMUSIC?TEXT1
?C0174 . . . . . . . . . . . . .  C ADDR   0132H   R   SEG=?PR?LIGHTSUNSHINEWITHMUSIC?TEXT1
?C0175 . . . . . . . . . . . . .  C ADDR   0145H   R   SEG=?PR?LIGHTSUNSHINEWITHMUSIC?TEXT1
?C0176 . . . . . . . . . . . . .  C ADDR   0159H   R   SEG=?PR?LIGHTSUNSHINEWITHMUSIC?TEXT1
?C0178 . . . . . . . . . . . . .  C ADDR   019FH   R   SEG=?PR?LIGHTSUNSHINEWITHMUSIC?TEXT1
?C0179 . . . . . . . . . . . . .  C ADDR   0042H   R   SEG=?PR?_LIGHTEFFECT2?TEXT1
?C0182 . . . . . . . . . . . . .  C ADDR   007EH   R   SEG=?PR?_LIGHTEFFECT2?TEXT1
?C0183 . . . . . . . . . . . . .  C ADDR   004BH   R   SEG=?PR?_LIGHTEFFECT1?TEXT1
?C0184 . . . . . . . . . . . . .  C ADDR   012CH   R   SEG=?PR?_LIGHTEFFECT1?TEXT1
?C0188 . . . . . . . . . . . . .  C ADDR   00D0H   R   SEG=?PR?_LIGHTCONTROLL?TEXT1
?C0189 . . . . . . . . . . . . .  C ADDR   00D3H   R   SEG=?PR?_LIGHTCONTROLL?TEXT1
?C0190 . . . . . . . . . . . . .  C ADDR   00D5H   R   SEG=?PR?_LIGHTCONTROLL?TEXT1
?C0191 . . . . . . . . . . . . .  C ADDR   00D7H   R   SEG=?PR?_LIGHTCONTROLL?TEXT1
?C0192 . . . . . . . . . . . . .  C ADDR   00D9H   R   SEG=?PR?_LIGHTCONTROLL?TEXT1
?C0193 . . . . . . . . . . . . .  C ADDR   00DDH   R   SEG=?PR?_LIGHTCONTROLL?TEXT1
?C0194 . . . . . . . . . . . . .  C ADDR   00DFH   R   SEG=?PR?_LIGHTCONTROLL?TEXT1
?C0195 . . . . . . . . . . . . .  C ADDR   00F3H   R   SEG=?PR?_LIGHTCONTROLL?TEXT1
?C0196 . . . . . . . . . . . . .  C ADDR   00F5H   R   SEG=?PR?_LIGHTCONTROLL?TEXT1
?C0197 . . . . . . . . . . . . .  C ADDR   00F8H   R   SEG=?PR?_LIGHTCONTROLL?TEXT1
?C0198 . . . . . . . . . . . . .  C ADDR   00FDH   R   SEG=?PR?_LIGHTCONTROLL?TEXT1
?C0199 . . . . . . . . . . . . .  C ADDR   0102H   R   SEG=?PR?_LIGHTCONTROLL?TEXT1
?C0200 . . . . . . . . . . . . .  C ADDR   0107H   R   SEG=?PR?_LIGHTCONTROLL?TEXT1
?C0201 . . . . . . . . . . . . .  C ADDR   010CH   R   SEG=?PR?_LIGHTCONTROLL?TEXT1
?C0202 . . . . . . . . . . . . .  C ADDR   0111H   R   SEG=?PR?_LIGHTCONTROLL?TEXT1
A51 MACRO ASSEMBLER  TEXT1                                                                01/10/2019 19:42:26 PAGE   106

?C0203 . . . . . . . . . . . . .  C ADDR   0116H   R   SEG=?PR?_LIGHTCONTROLL?TEXT1
?C0204 . . . . . . . . . . . . .  C ADDR   0119H   R   SEG=?PR?_LIGHTCONTROLL?TEXT1
?C0205 . . . . . . . . . . . . .  C ADDR   011CH   R   SEG=?PR?_LIGHTCONTROLL?TEXT1
?C0206 . . . . . . . . . . . . .  C ADDR   0121H   R   SEG=?PR?_LIGHTCONTROLL?TEXT1
?C0207 . . . . . . . . . . . . .  C ADDR   0126H   R   SEG=?PR?_LIGHTCONTROLL?TEXT1
?C0208 . . . . . . . . . . . . .  C ADDR   012BH   R   SEG=?PR?_LIGHTCONTROLL?TEXT1
?C0209 . . . . . . . . . . . . .  C ADDR   0130H   R   SEG=?PR?_LIGHTCONTROLL?TEXT1
?C0210 . . . . . . . . . . . . .  C ADDR   0135H   R   SEG=?PR?_LIGHTCONTROLL?TEXT1
?C0211 . . . . . . . . . . . . .  C ADDR   013AH   R   SEG=?PR?_LIGHTCONTROLL?TEXT1
?C0212 . . . . . . . . . . . . .  C ADDR   013DH   R   SEG=?PR?_LIGHTCONTROLL?TEXT1
?C0213 . . . . . . . . . . . . .  C ADDR   0141H   R   SEG=?PR?_LIGHTCONTROLL?TEXT1
?C0214 . . . . . . . . . . . . .  C ADDR   0146H   R   SEG=?PR?_LIGHTCONTROLL?TEXT1
?C0215 . . . . . . . . . . . . .  C ADDR   014BH   R   SEG=?PR?_LIGHTCONTROLL?TEXT1
?C0216 . . . . . . . . . . . . .  C ADDR   014FH   R   SEG=?PR?_LIGHTCONTROLL?TEXT1
?C0217 . . . . . . . . . . . . .  C ADDR   0153H   R   SEG=?PR?_LIGHTCONTROLL?TEXT1
?C0218 . . . . . . . . . . . . .  C ADDR   0159H   R   SEG=?PR?_LIGHTCONTROLL?TEXT1
?C0219 . . . . . . . . . . . . .  C ADDR   015DH   R   SEG=?PR?_LIGHTCONTROLL?TEXT1
?C0220 . . . . . . . . . . . . .  C ADDR   0163H   R   SEG=?PR?_LIGHTCONTROLL?TEXT1
?C0221 . . . . . . . . . . . . .  C ADDR   0166H   R   SEG=?PR?_LIGHTCONTROLL?TEXT1
?C0222 . . . . . . . . . . . . .  C ADDR   016AH   R   SEG=?PR?_LIGHTCONTROLL?TEXT1
?C0223 . . . . . . . . . . . . .  C ADDR   0170H   R   SEG=?PR?_LIGHTCONTROLL?TEXT1
?C0224 . . . . . . . . . . . . .  C ADDR   0174H   R   SEG=?PR?_LIGHTCONTROLL?TEXT1
?C0225 . . . . . . . . . . . . .  C ADDR   017CH   R   SEG=?PR?_LIGHTCONTROLL?TEXT1
?C0226 . . . . . . . . . . . . .  C ADDR   0184H   R   SEG=?PR?_LIGHTCONTROLL?TEXT1
?C0227 . . . . . . . . . . . . .  C ADDR   0188H   R   SEG=?PR?_LIGHTCONTROLL?TEXT1
?C0228 . . . . . . . . . . . . .  C ADDR   0190H   R   SEG=?PR?_LIGHTCONTROLL?TEXT1
?C0229 . . . . . . . . . . . . .  C ADDR   0192H   R   SEG=?PR?_LIGHTCONTROLL?TEXT1
?C0230 . . . . . . . . . . . . .  C ADDR   0196H   R   SEG=?PR?_LIGHTCONTROLL?TEXT1
?C0231 . . . . . . . . . . . . .  C ADDR   019AH   R   SEG=?PR?_LIGHTCONTROLL?TEXT1
?C0232 . . . . . . . . . . . . .  C ADDR   019EH   R   SEG=?PR?_LIGHTCONTROLL?TEXT1
?C0233 . . . . . . . . . . . . .  C ADDR   01A2H   R   SEG=?PR?_LIGHTCONTROLL?TEXT1
?C0234 . . . . . . . . . . . . .  C ADDR   01A6H   R   SEG=?PR?_LIGHTCONTROLL?TEXT1
?C0235 . . . . . . . . . . . . .  C ADDR   01AAH   R   SEG=?PR?_LIGHTCONTROLL?TEXT1
?C0236 . . . . . . . . . . . . .  C ADDR   01ACH   R   SEG=?PR?_LIGHTCONTROLL?TEXT1
?C0237 . . . . . . . . . . . . .  C ADDR   01B3H   R   SEG=?PR?_LIGHTCONTROLL?TEXT1
?C0238 . . . . . . . . . . . . .  C ADDR   01B7H   R   SEG=?PR?_LIGHTCONTROLL?TEXT1
?C0239 . . . . . . . . . . . . .  C ADDR   01BBH   R   SEG=?PR?_LIGHTCONTROLL?TEXT1
?C0240 . . . . . . . . . . . . .  C ADDR   01BFH   R   SEG=?PR?_LIGHTCONTROLL?TEXT1
?C0241 . . . . . . . . . . . . .  C ADDR   01C3H   R   SEG=?PR?_LIGHTCONTROLL?TEXT1
?C0242 . . . . . . . . . . . . .  C ADDR   01C7H   R   SEG=?PR?_LIGHTCONTROLL?TEXT1
?C0243 . . . . . . . . . . . . .  C ADDR   01CEH   R   SEG=?PR?_LIGHTCONTROLL?TEXT1
?C0244 . . . . . . . . . . . . .  C ADDR   01D5H   R   SEG=?PR?_LIGHTCONTROLL?TEXT1
?C0247 . . . . . . . . . . . . .  C ADDR   01D8H   R   SEG=?PR?_LIGHTCONTROLL?TEXT1
?C0248 . . . . . . . . . . . . .  C ADDR   01E0H   R   SEG=?PR?_LIGHTCONTROLL?TEXT1
?C0249 . . . . . . . . . . . . .  C ADDR   01E9H   R   SEG=?PR?_LIGHTCONTROLL?TEXT1
?C0251 . . . . . . . . . . . . .  C ADDR   01FCH   R   SEG=?PR?_LIGHTCONTROLL?TEXT1
?C0253 . . . . . . . . . . . . .  C ADDR   01FFH   R   SEG=?PR?_LIGHTCONTROLL?TEXT1
?C0254 . . . . . . . . . . . . .  C ADDR   0002H   R   SEG=?PR?LONG_DELAY?TEXT1
?C0257 . . . . . . . . . . . . .  C ADDR   0007H   R   SEG=?PR?LONG_DELAY?TEXT1
?C0258 . . . . . . . . . . . . .  C ADDR   0002H   R   SEG=?PR?SHORT_DELAY?TEXT1
?C0261 . . . . . . . . . . . . .  C ADDR   0007H   R   SEG=?PR?SHORT_DELAY?TEXT1
?C0262 . . . . . . . . . . . . .  C ADDR   0009H   R   SEG=?PR?_SENDBYTETO7279?TEXT1
?C0263 . . . . . . . . . . . . .  C ADDR   0026H   R   SEG=?PR?_SENDBYTETO7279?TEXT1
?C0265 . . . . . . . . . . . . .  C ADDR   0011H   R   SEG=?PR?_SENDBYTETO7279?TEXT1
?C0266 . . . . . . . . . . . . .  C ADDR   0013H   R   SEG=?PR?_SENDBYTETO7279?TEXT1
?C0268 . . . . . . . . . . . . .  C ADDR   0008H   R   SEG=?PR?RECEIVEDBYTETOMCU?TEXT1
?C0269 . . . . . . . . . . . . .  C ADDR   0021H   R   SEG=?PR?RECEIVEDBYTETOMCU?TEXT1
?C0271 . . . . . . . . . . . . .  C ADDR   0017H   R   SEG=?PR?RECEIVEDBYTETOMCU?TEXT1
?C0272 . . . . . . . . . . . . .  C ADDR   0025H   R   SEG=?PR?RECEIVEDBYTETOMCU?TEXT1
?C0273 . . . . . . . . . . . . .  C ADDR   0008H   R   SEG=?PR?KEY_READ?TEXT1
?C0274 . . . . . . . . . . . . .  C ADDR   0003H   R   SEG=?PR?_DELAYMS?TEXT1
?C0276 . . . . . . . . . . . . .  C ADDR   0018H   R   SEG=?PR?_DELAYMS?TEXT1
?C0277 . . . . . . . . . . . . .  C ADDR   000DH   R   SEG=?PR?_DELAYMS?TEXT1
?C0280 . . . . . . . . . . . . .  C ADDR   001FH   R   SEG=?PR?_DELAYMS?TEXT1
?C0281 . . . . . . . . . . . . .  C ADDR   0002H   R   SEG=?PR?_SENDBYTE2COMPUTER?TEXT1
?C0282 . . . . . . . . . . . . .  C ADDR   0005H   R   SEG=?PR?_SENDBYTE2COMPUTER?TEXT1
A51 MACRO ASSEMBLER  TEXT1                                                                01/10/2019 19:42:26 PAGE   107

?C0284 . . . . . . . . . . . . .  C ADDR   0000H   R   SEG=?PR?_SENDBYTES2COMPUTER?TEXT1
?C0286 . . . . . . . . . . . . .  C ADDR   0012H   R   SEG=?PR?_SENDBYTES2COMPUTER?TEXT1
?C0288 . . . . . . . . . . . . .  C ADDR   0002H   R   SEG=?PR?_DELAY1MS?TEXT1
?C0291 . . . . . . . . . . . . .  C ADDR   000FH   R   SEG=?PR?_DELAY1MS?TEXT1
?C0294 . . . . . . . . . . . . .  C ADDR   000DH   R   SEG=?PR?_DELAY1MS?TEXT1
?C0295 . . . . . . . . . . . . .  C ADDR   000FH   R   SEG=?PR?_DELAY1MS?TEXT1
?C0296 . . . . . . . . . . . . .  C ADDR   0014H   R   SEG=?PR?_DELAY1MS?TEXT1
?C0297 . . . . . . . . . . . . .  C ADDR   0003H   R   SEG=?PR?MAIN?TEXT1
?C0301 . . . . . . . . . . . . .  C ADDR   001BH   R   SEG=?PR?_HAL_DELAY?TEXT1
?C0302 . . . . . . . . . . . . .  C ADDR   0022H   R   SEG=?PR?_HAL_DELAY?TEXT1
?C0303 . . . . . . . . . . . . .  C ADDR   0036H   R   SEG=?PR?RESET?TEXT1
?C0304 . . . . . . . . . . . . .  C ADDR   0031H   R   SEG=?PR?_SEND_2811_24BITS?TEXT1
?C0305 . . . . . . . . . . . . .  C ADDR   0033H   R   SEG=?PR?_SEND_2811_24BITS?TEXT1
?C0306 . . . . . . . . . . . . .  C ADDR   0046H   R   SEG=?PR?_SEND_2811_24BITS?TEXT1
?C0307 . . . . . . . . . . . . .  C ADDR   0057H   R   SEG=?PR?_SEND_2811_24BITS?TEXT1
?C0308 . . . . . . . . . . . . .  C ADDR   0059H   R   SEG=?PR?_SEND_2811_24BITS?TEXT1
?C0309 . . . . . . . . . . . . .  C ADDR   006CH   R   SEG=?PR?_SEND_2811_24BITS?TEXT1
?C0310 . . . . . . . . . . . . .  C ADDR   007DH   R   SEG=?PR?_SEND_2811_24BITS?TEXT1
?C0311 . . . . . . . . . . . . .  C ADDR   007FH   R   SEG=?PR?_SEND_2811_24BITS?TEXT1
?C0312 . . . . . . . . . . . . .  C ADDR   0092H   R   SEG=?PR?_SEND_2811_24BITS?TEXT1
?C0313 . . . . . . . . . . . . .  C ADDR   004DH   R   SEG=?PR?_RAINBOW?TEXT1
?C0314 . . . . . . . . . . . . .  C ADDR   0066H   R   SEG=?PR?_RAINBOW?TEXT1
?C0315 . . . . . . . . . . . . .  C ADDR   002BH   R   SEG=?PR?_RAINBOWCYCLE?TEXT1
?C0316 . . . . . . . . . . . . .  C ADDR   005AH   R   SEG=?PR?_RAINBOWCYCLE?TEXT1
?C0317 . . . . . . . . . . . . .  C ADDR   0073H   R   SEG=?PR?_RAINBOWCYCLE?TEXT1
?C0318 . . . . . . . . . . . . .  C ADDR   00C3H   R   SEG=?PR?_THEATERCHASE?TEXT1
?C0319 . . . . . . . . . . . . .  C ADDR   00E5H   R   SEG=?PR?_THEATERCHASE?TEXT1
?C0320 . . . . . . . . . . . . .  C ADDR   00C1H   R   SEG=?PR?_THEATERCHASERAINBOW?TEXT1
?C0321 . . . . . . . . . . . . .  C ADDR   00E3H   R   SEG=?PR?_THEATERCHASERAINBOW?TEXT1
?C0322 . . . . . . . . . . . . .  C ADDR   004FH   R   SEG=?PR?_COLORWIPE?TEXT1
?C0323 . . . . . . . . . . . . .  C ADDR   003BH   R   SEG=?PR?LIGHTEFFECT1_1?TEXT1
?C0324 . . . . . . . . . . . . .  C ADDR   006BH   R   SEG=?PR?LIGHTEFFECT1_1?TEXT1
?C0325 . . . . . . . . . . . . .  C ADDR   00A8H   R   SEG=?PR?LIGHTEFFECT1_1?TEXT1
?C0326 . . . . . . . . . . . . .  C ADDR   010FH   R   SEG=?PR?LIGHTEFFECT1_1?TEXT1
?C0327 . . . . . . . . . . . . .  C ADDR   003EH   R   SEG=?PR?LIGHTEFFECT1_8?TEXT1
?C0328 . . . . . . . . . . . . .  C ADDR   0073H   R   SEG=?PR?LIGHTEFFECT1_8?TEXT1
?C0329 . . . . . . . . . . . . .  C ADDR   00B5H   R   SEG=?PR?LIGHTEFFECT1_8?TEXT1
?C0330 . . . . . . . . . . . . .  C ADDR   0123H   R   SEG=?PR?LIGHTEFFECT1_8?TEXT1
?C0331 . . . . . . . . . . . . .  C ADDR   003EH   R   SEG=?PR?LIGHTEFFECT8_1?TEXT1
?C0332 . . . . . . . . . . . . .  C ADDR   0070H   R   SEG=?PR?LIGHTEFFECT8_1?TEXT1
?C0333 . . . . . . . . . . . . .  C ADDR   00B5H   R   SEG=?PR?LIGHTEFFECT8_1?TEXT1
?C0334 . . . . . . . . . . . . .  C ADDR   0125H   R   SEG=?PR?LIGHTEFFECT8_1?TEXT1
?C0335 . . . . . . . . . . . . .  C ADDR   002BH   R   SEG=?PR?LIGHTEFFECT8_8?TEXT1
?C0336 . . . . . . . . . . . . .  C ADDR   0052H   R   SEG=?PR?LIGHTEFFECT8_8?TEXT1
?C0337 . . . . . . . . . . . . .  C ADDR   0081H   R   SEG=?PR?LIGHTEFFECT8_8?TEXT1
?C0338 . . . . . . . . . . . . .  C ADDR   00FFH   R   SEG=?PR?LIGHTEFFECT8_8?TEXT1
?C0339 . . . . . . . . . . . . .  C ADDR   003EH   R   SEG=?PR?LIGHTSUNSHINEWITHMUSIC?TEXT1
?C0340 . . . . . . . . . . . . .  C ADDR   00C3H   R   SEG=?PR?LIGHTSUNSHINEWITHMUSIC?TEXT1
?C0341 . . . . . . . . . . . . .  C ADDR   00CFH   R   SEG=?PR?LIGHTSUNSHINEWITHMUSIC?TEXT1
?C0342 . . . . . . . . . . . . .  C ADDR   017AH   R   SEG=?PR?LIGHTSUNSHINEWITHMUSIC?TEXT1
?C0343 . . . . . . . . . . . . .  C ADDR   018BH   R   SEG=?PR?LIGHTSUNSHINEWITHMUSIC?TEXT1
?C0344 . . . . . . . . . . . . .  C ADDR   007CH   R   SEG=?PR?_LIGHTEFFECT2?TEXT1
?C0345 . . . . . . . . . . . . .  C ADDR   0082H   R   SEG=?PR?_LIGHTEFFECT1?TEXT1
?C0346 . . . . . . . . . . . . .  C ADDR   00A7H   R   SEG=?PR?_LIGHTEFFECT1?TEXT1
?C0347 . . . . . . . . . . . . .  C ADDR   00DAH   R   SEG=?PR?_LIGHTEFFECT1?TEXT1
?C0348 . . . . . . . . . . . . .  C ADDR   0129H   R   SEG=?PR?_LIGHTEFFECT1?TEXT1
?C0349 . . . . . . . . . . . . .  C ADDR   0004H   R   SEG=?PR?_LIGHTCONTROLL?TEXT1
?C0350 . . . . . . . . . . . . .  C ADDR   0010H   R   SEG=?PR?_LIGHTCONTROLL?TEXT1
?C0351 . . . . . . . . . . . . .  C ADDR   0012H   R   SEG=?PR?_DELAYMS?TEXT1
?C0352 . . . . . . . . . . . . .  C ADDR   001DH   R   SEG=?PR?_DELAYMS?TEXT1
?C0353 . . . . . . . . . . . . .  C ADDR   0038H   R   SEG=?PR?_WHEEL?TEXT1
?C0354 . . . . . . . . . . . . .  C ADDR   004EH   R   SEG=?PR?_WHEEL?TEXT1
?C0355 . . . . . . . . . . . . .  C ADDR   00AEH   R   SEG=?PR?LIGHTSUNSHINEWITHMUSIC?TEXT1
?C0356 . . . . . . . . . . . . .  C ADDR   00F6H   R   SEG=?PR?LIGHTSUNSHINEWITHMUSIC?TEXT1
?C0357 . . . . . . . . . . . . .  C ADDR   0109H   R   SEG=?PR?LIGHTSUNSHINEWITHMUSIC?TEXT1
?C0358 . . . . . . . . . . . . .  C ADDR   011DH   R   SEG=?PR?LIGHTSUNSHINEWITHMUSIC?TEXT1
A51 MACRO ASSEMBLER  TEXT1                                                                01/10/2019 19:42:26 PAGE   108

?C0359 . . . . . . . . . . . . .  C ADDR   0130H   R   SEG=?PR?LIGHTSUNSHINEWITHMUSIC?TEXT1
?C0360 . . . . . . . . . . . . .  C ADDR   0143H   R   SEG=?PR?LIGHTSUNSHINEWITHMUSIC?TEXT1
?C0361 . . . . . . . . . . . . .  C ADDR   0157H   R   SEG=?PR?LIGHTSUNSHINEWITHMUSIC?TEXT1
?C0362 . . . . . . . . . . . . .  C ADDR   0169H   R   SEG=?PR?LIGHTSUNSHINEWITHMUSIC?TEXT1
?C0363 . . . . . . . . . . . . .  C ADDR   00D5H   R   SEG=?PR?_LIGHTCONTROLL?TEXT1
?C0364 . . . . . . . . . . . . .  C ADDR   00DDH   R   SEG=?PR?_LIGHTCONTROLL?TEXT1
?C0365 . . . . . . . . . . . . .  C ADDR   0146H   R   SEG=?PR?_LIGHTCONTROLL?TEXT1
?C0366 . . . . . . . . . . . . .  C ADDR   013FH   R   SEG=?PR?_LIGHTCONTROLL?TEXT1
?C0367 . . . . . . . . . . . . .  C ADDR   00DFH   R   SEG=?PR?_LIGHTCONTROLL?TEXT1
?C0368 . . . . . . . . . . . . .  C ADDR   0163H   R   SEG=?PR?_LIGHTCONTROLL?TEXT1
?C0369 . . . . . . . . . . . . .  C ADDR   0119H   R   SEG=?PR?_LIGHTCONTROLL?TEXT1
?C0370 . . . . . . . . . . . . .  C ADDR   00FFH   R   SEG=?PR?_LIGHTCONTROLL?TEXT1
?C0371 . . . . . . . . . . . . .  C ADDR   0104H   R   SEG=?PR?_LIGHTCONTROLL?TEXT1
?C0372 . . . . . . . . . . . . .  C ADDR   0109H   R   SEG=?PR?_LIGHTCONTROLL?TEXT1
?C0373 . . . . . . . . . . . . .  C ADDR   010EH   R   SEG=?PR?_LIGHTCONTROLL?TEXT1
?C0374 . . . . . . . . . . . . .  C ADDR   0113H   R   SEG=?PR?_LIGHTCONTROLL?TEXT1
?C0375 . . . . . . . . . . . . .  C ADDR   011EH   R   SEG=?PR?_LIGHTCONTROLL?TEXT1
?C0376 . . . . . . . . . . . . .  C ADDR   013AH   R   SEG=?PR?_LIGHTCONTROLL?TEXT1
?C0377 . . . . . . . . . . . . .  C ADDR   0190H   R   SEG=?PR?_LIGHTCONTROLL?TEXT1
?C0378 . . . . . . . . . . . . .  C ADDR   0123H   R   SEG=?PR?_LIGHTCONTROLL?TEXT1
?C0379 . . . . . . . . . . . . .  C ADDR   0128H   R   SEG=?PR?_LIGHTCONTROLL?TEXT1
?C0380 . . . . . . . . . . . . .  C ADDR   012DH   R   SEG=?PR?_LIGHTCONTROLL?TEXT1
?C0381 . . . . . . . . . . . . .  C ADDR   0132H   R   SEG=?PR?_LIGHTCONTROLL?TEXT1
?C0382 . . . . . . . . . . . . .  C ADDR   0137H   R   SEG=?PR?_LIGHTCONTROLL?TEXT1
?C0383 . . . . . . . . . . . . .  C ADDR   0143H   R   SEG=?PR?_LIGHTCONTROLL?TEXT1
?C0384 . . . . . . . . . . . . .  C ADDR   01AAH   R   SEG=?PR?_LIGHTCONTROLL?TEXT1
?C0385 . . . . . . . . . . . . .  C ADDR   0155H   R   SEG=?PR?_LIGHTCONTROLL?TEXT1
?C0386 . . . . . . . . . . . . .  C ADDR   015BH   R   SEG=?PR?_LIGHTCONTROLL?TEXT1
?C0387 . . . . . . . . . . . . .  C ADDR   0157H   R   SEG=?PR?_LIGHTCONTROLL?TEXT1
?C0388 . . . . . . . . . . . . .  C ADDR   0151H   R   SEG=?PR?_LIGHTCONTROLL?TEXT1
?C0389 . . . . . . . . . . . . .  C ADDR   0172H   R   SEG=?PR?_LIGHTCONTROLL?TEXT1
?C0390 . . . . . . . . . . . . .  C ADDR   0161H   R   SEG=?PR?_LIGHTCONTROLL?TEXT1
?C0391 . . . . . . . . . . . . .  C ADDR   0168H   R   SEG=?PR?_LIGHTCONTROLL?TEXT1
?C0392 . . . . . . . . . . . . .  C ADDR   016EH   R   SEG=?PR?_LIGHTCONTROLL?TEXT1
?C0393 . . . . . . . . . . . . .  C ADDR   0186H   R   SEG=?PR?_LIGHTCONTROLL?TEXT1
?C0394 . . . . . . . . . . . . .  C ADDR   0180H   R   SEG=?PR?_LIGHTCONTROLL?TEXT1
?C0395 . . . . . . . . . . . . .  C ADDR   0176H   R   SEG=?PR?_LIGHTCONTROLL?TEXT1
?C0396 . . . . . . . . . . . . .  C ADDR   0182H   R   SEG=?PR?_LIGHTCONTROLL?TEXT1
?C0397 . . . . . . . . . . . . .  C ADDR   018EH   R   SEG=?PR?_LIGHTCONTROLL?TEXT1
?C0398 . . . . . . . . . . . . .  C ADDR   0194H   R   SEG=?PR?_LIGHTCONTROLL?TEXT1
?C0399 . . . . . . . . . . . . .  C ADDR   01DEH   R   SEG=?PR?_LIGHTCONTROLL?TEXT1
?C0400 . . . . . . . . . . . . .  C ADDR   01ACH   R   SEG=?PR?_LIGHTCONTROLL?TEXT1
?C0401 . . . . . . . . . . . . .  C ADDR   0198H   R   SEG=?PR?_LIGHTCONTROLL?TEXT1
?C0402 . . . . . . . . . . . . .  C ADDR   019CH   R   SEG=?PR?_LIGHTCONTROLL?TEXT1
?C0403 . . . . . . . . . . . . .  C ADDR   01A0H   R   SEG=?PR?_LIGHTCONTROLL?TEXT1
?C0404 . . . . . . . . . . . . .  C ADDR   01A4H   R   SEG=?PR?_LIGHTCONTROLL?TEXT1
?C0405 . . . . . . . . . . . . .  C ADDR   01A8H   R   SEG=?PR?_LIGHTCONTROLL?TEXT1
?C0406 . . . . . . . . . . . . .  C ADDR   01B5H   R   SEG=?PR?_LIGHTCONTROLL?TEXT1
?C0407 . . . . . . . . . . . . .  C ADDR   01CEH   R   SEG=?PR?_LIGHTCONTROLL?TEXT1
?C0408 . . . . . . . . . . . . .  C ADDR   01B9H   R   SEG=?PR?_LIGHTCONTROLL?TEXT1
?C0409 . . . . . . . . . . . . .  C ADDR   01BDH   R   SEG=?PR?_LIGHTCONTROLL?TEXT1
?C0410 . . . . . . . . . . . . .  C ADDR   01C1H   R   SEG=?PR?_LIGHTCONTROLL?TEXT1
?C0411 . . . . . . . . . . . . .  C ADDR   01C5H   R   SEG=?PR?_LIGHTCONTROLL?TEXT1
?C0412 . . . . . . . . . . . . .  C ADDR   01C9H   R   SEG=?PR?_LIGHTCONTROLL?TEXT1
?C0414 . . . . . . . . . . . . .  C ADDR   01E9H   R   SEG=?PR?_LIGHTCONTROLL?TEXT1
?C0415 . . . . . . . . . . . . .  C ADDR   01E6H   R   SEG=?PR?_LIGHTCONTROLL?TEXT1
?C0416 . . . . . . . . . . . . .  C ADDR   01E9H   R   SEG=?PR?_LIGHTCONTROLL?TEXT1
?C?CASTF . . . . . . . . . . . .  C ADDR   -----       EXT
?C?CLDPTR. . . . . . . . . . . .  C ADDR   -----       EXT
?C?COPY. . . . . . . . . . . . .  C ADDR   -----       EXT
?C?FCASTC. . . . . . . . . . . .  C ADDR   -----       EXT
?C?FCASTI. . . . . . . . . . . .  C ADDR   -----       EXT
?C?FPDIV . . . . . . . . . . . .  C ADDR   -----       EXT
?C?LSHL. . . . . . . . . . . . .  C ADDR   -----       EXT
?C?LSTKXDATA . . . . . . . . . .  C ADDR   -----       EXT
?C?LSTXDATA. . . . . . . . . . .  C ADDR   -----       EXT
A51 MACRO ASSEMBLER  TEXT1                                                                01/10/2019 19:42:26 PAGE   109

?C?SIDIV . . . . . . . . . . . .  C ADDR   -----       EXT
?C?UIDIV . . . . . . . . . . . .  C ADDR   -----       EXT
?C?ULSHR . . . . . . . . . . . .  C ADDR   -----       EXT
?CO?TEXT1. . . . . . . . . . . .  C SEG    0480H       REL=UNIT
?C_INITSEG . . . . . . . . . . .  C SEG    00CCH       REL=UNIT
?C_STARTUP . . . . . . . . . . .  C ADDR   -----       EXT
?LIGHTEFFECT1_1?BYTE . . . . . .  X ADDR   0000H   R   SEG=?XD?LIGHTEFFECT1_1?TEXT1
?LIGHTEFFECT1_8?BYTE . . . . . .  X ADDR   0000H   R   SEG=?XD?LIGHTEFFECT1_8?TEXT1
?LIGHTEFFECT8_1?BYTE . . . . . .  X ADDR   0000H   R   SEG=?XD?LIGHTEFFECT8_1?TEXT1
?LIGHTEFFECT8_8?BYTE . . . . . .  X ADDR   0000H   R   SEG=?XD?LIGHTEFFECT8_8?TEXT1
?LIGHTSUNSHINEWITHMUSIC?BYTE . .  X ADDR   0000H   R   SEG=?XD?LIGHTSUNSHINEWITHMUSIC?TEXT1
?MAIN?BYTE . . . . . . . . . . .  X ADDR   0000H   R   SEG=?XD?MAIN?TEXT1
?PR?DELAY50US?TEXT1. . . . . . .  C SEG    000BH       REL=UNIT
?PR?GETNUM?TEXT1 . . . . . . . .  C SEG    000FH       REL=UNIT
?PR?KEY_READ?TEXT1 . . . . . . .  C SEG    0009H       REL=UNIT
?PR?LIGHTEFFECT1_1?TEXT1 . . . .  C SEG    0112H       REL=UNIT
?PR?LIGHTEFFECT1_8?TEXT1 . . . .  C SEG    0126H       REL=UNIT
?PR?LIGHTEFFECT8_1?TEXT1 . . . .  C SEG    0128H       REL=UNIT
?PR?LIGHTEFFECT8_8?TEXT1 . . . .  C SEG    0102H       REL=UNIT
?PR?LIGHTSUNSHINEWITHMUSIC?TEXT1  C SEG    01A0H       REL=UNIT
?PR?LONG_DELAY?TEXT1 . . . . . .  C SEG    0008H       REL=UNIT
?PR?MAIN?TEXT1 . . . . . . . . .  C SEG    001AH       REL=UNIT
?PR?PIXELUPDATE?TEXT1. . . . . .  C SEG    0003H       REL=UNIT
?PR?RECEIVEDBYTETOMCU?TEXT1. . .  C SEG    0026H       REL=UNIT
?PR?RESET?TEXT1. . . . . . . . .  C SEG    0039H       REL=UNIT
?PR?RGB_RST?TEXT1. . . . . . . .  C SEG    0005H       REL=UNIT
?PR?RGB_SET_DOWN?TEXT1 . . . . .  C SEG    000BH       REL=UNIT
?PR?RGB_SET_UP?TEXT1 . . . . . .  C SEG    0012H       REL=UNIT
?PR?SHORT_DELAY?TEXT1. . . . . .  C SEG    0008H       REL=UNIT
?PR?UARTINIT?TEXT1 . . . . . . .  C SEG    0017H       REL=UNIT
?PR?ZIDINGYI1?TEXT1. . . . . . .  C SEG    004BH       REL=UNIT
?PR?_COLOR?TEXT1 . . . . . . . .  C SEG    005CH       REL=UNIT
?PR?_COLORWIPE?TEXT1 . . . . . .  C SEG    0054H       REL=UNIT
?PR?_DELAY1MS?TEXT1. . . . . . .  C SEG    0015H       REL=UNIT
?PR?_DELAYMS?TEXT1 . . . . . . .  C SEG    0020H       REL=UNIT
?PR?_HAL_DELAY?TEXT1 . . . . . .  C SEG    0027H       REL=UNIT
?PR?_LIGHTCONTROLL?TEXT1 . . . .  C SEG    0200H       REL=UNIT
?PR?_LIGHTEFFECT1?TEXT1. . . . .  C SEG    012FH       REL=UNIT
?PR?_LIGHTEFFECT2?TEXT1. . . . .  C SEG    007FH       REL=UNIT
?PR?_LIGHTEFFECT8?TEXT1. . . . .  C SEG    004CH       REL=UNIT
?PR?_RAINBOW?TEXT1 . . . . . . .  C SEG    0078H       REL=UNIT
?PR?_RAINBOWCYCLE?TEXT1. . . . .  C SEG    007DH       REL=UNIT
?PR?_SENDBYTE2COMPUTER?TEXT1 . .  C SEG    0008H       REL=UNIT
?PR?_SENDBYTES2COMPUTER?TEXT1. .  C SEG    0013H       REL=UNIT
?PR?_SENDBYTETO7279?TEXT1. . . .  C SEG    0029H       REL=UNIT
?PR?_SEND_2811_24BITS?TEXT1. . .  C SEG    0099H       REL=UNIT
?PR?_SENTPIXELCOLOR?TEXT1. . . .  C SEG    0066H       REL=UNIT
?PR?_SETPIXELCOLOR?TEXT1 . . . .  C SEG    0066H       REL=UNIT
?PR?_SETPOINTCOLOUR?TEXT1. . . .  C SEG    004AH       REL=UNIT
?PR?_SET_COLOUR?TEXT1. . . . . .  C SEG    0036H       REL=UNIT
?PR?_THEATERCHASE?TEXT1. . . . .  C SEG    00FAH       REL=UNIT
?PR?_THEATERCHASERAINBOW?TEXT1 .  C SEG    00FAH       REL=UNIT
?PR?_WHEEL?TEXT1 . . . . . . . .  C SEG    0052H       REL=UNIT
?PR?_WS2812ASM?TEXT1 . . . . . .  C SEG    0013H       REL=UNIT
?RESET?BYTE. . . . . . . . . . .  X ADDR   0000H   R   SEG=?XD?RESET?TEXT1
?XD?LIGHTEFFECT1_1?TEXT1 . . . .  X SEG    0004H       REL=UNIT
?XD?LIGHTEFFECT1_8?TEXT1 . . . .  X SEG    0004H       REL=UNIT
?XD?LIGHTEFFECT8_1?TEXT1 . . . .  X SEG    0004H       REL=UNIT
?XD?LIGHTEFFECT8_8?TEXT1 . . . .  X SEG    0004H       REL=UNIT
?XD?LIGHTSUNSHINEWITHMUSIC?TEXT1  X SEG    0008H       REL=UNIT
?XD?MAIN?TEXT1 . . . . . . . . .  X SEG    0001H       REL=UNIT
?XD?RESET?TEXT1. . . . . . . . .  X SEG    0002H       REL=UNIT
?XD?TEXT1. . . . . . . . . . . .  X SEG    00C0H       REL=UNIT
?XD?_COLOR?TEXT1 . . . . . . . .  X SEG    0002H       REL=UNIT
?XD?_COLORWIPE?TEXT1 . . . . . .  X SEG    0008H       REL=UNIT
?XD?_LIGHTEFFECT1?TEXT1. . . . .  X SEG    0485H       REL=UNIT
A51 MACRO ASSEMBLER  TEXT1                                                                01/10/2019 19:42:26 PAGE   110

?XD?_LIGHTEFFECT2?TEXT1. . . . .  X SEG    0008H       REL=UNIT
?XD?_LIGHTEFFECT8?TEXT1. . . . .  X SEG    0002H       REL=UNIT
?XD?_RAINBOW?TEXT1 . . . . . . .  X SEG    0006H       REL=UNIT
?XD?_RAINBOWCYCLE?TEXT1. . . . .  X SEG    0006H       REL=UNIT
?XD?_SENTPIXELCOLOR?TEXT1. . . .  X SEG    0005H       REL=UNIT
?XD?_SETPIXELCOLOR?TEXT1 . . . .  X SEG    0005H       REL=UNIT
?XD?_SETPOINTCOLOUR?TEXT1. . . .  X SEG    0005H       REL=UNIT
?XD?_THEATERCHASE?TEXT1. . . . .  X SEG    000CH       REL=UNIT
?XD?_THEATERCHASERAINBOW?TEXT1 .  X SEG    0008H       REL=UNIT
?XD?_WHEEL?TEXT1 . . . . . . . .  X SEG    0001H       REL=UNIT
?XD?_WS2812ASM?TEXT1 . . . . . .  X SEG    0001H       REL=UNIT
?_COLOR?BYTE . . . . . . . . . .  X ADDR   0000H   R   SEG=?XD?_COLOR?TEXT1
?_COLORWIPE?BYTE . . . . . . . .  X ADDR   0000H   R   SEG=?XD?_COLORWIPE?TEXT1
?_LIGHTEFFECT1?BYTE. . . . . . .  X ADDR   0000H   R   SEG=?XD?_LIGHTEFFECT1?TEXT1
?_LIGHTEFFECT2?BYTE. . . . . . .  X ADDR   0000H   R   SEG=?XD?_LIGHTEFFECT2?TEXT1
?_LIGHTEFFECT8?BYTE. . . . . . .  X ADDR   0000H   R   SEG=?XD?_LIGHTEFFECT8?TEXT1
?_RAINBOW?BYTE . . . . . . . . .  X ADDR   0000H   R   SEG=?XD?_RAINBOW?TEXT1
?_RAINBOWCYCLE?BYTE. . . . . . .  X ADDR   0000H   R   SEG=?XD?_RAINBOWCYCLE?TEXT1
?_SENTPIXELCOLOR?BYTE. . . . . .  X ADDR   0000H   R   SEG=?XD?_SENTPIXELCOLOR?TEXT1
?_SETPIXELCOLOR?BYTE . . . . . .  X ADDR   0000H   R   SEG=?XD?_SETPIXELCOLOR?TEXT1
?_SETPOINTCOLOUR?BYTE. . . . . .  X ADDR   0000H   R   SEG=?XD?_SETPOINTCOLOUR?TEXT1
?_THEATERCHASE?BYTE. . . . . . .  X ADDR   0000H   R   SEG=?XD?_THEATERCHASE?TEXT1
?_THEATERCHASERAINBOW?BYTE . . .  X ADDR   0000H   R   SEG=?XD?_THEATERCHASERAINBOW?TEXT1
?_WHEEL?BYTE . . . . . . . . . .  X ADDR   0000H   R   SEG=?XD?_WHEEL?TEXT1
?_WS2812ASM?BYTE . . . . . . . .  X ADDR   0000H   R   SEG=?XD?_WS2812ASM?TEXT1
AC . . . . . . . . . . . . . . .  B ADDR   00D0H.6 A   
ACC. . . . . . . . . . . . . . .  D ADDR   00E0H   A   
AR0. . . . . . . . . . . . . . .  D ADDR   0000H   A   
AR1. . . . . . . . . . . . . . .  D ADDR   0001H   A   
AR2. . . . . . . . . . . . . . .  D ADDR   0002H   A   
AR3. . . . . . . . . . . . . . .  D ADDR   0003H   A   
AR4. . . . . . . . . . . . . . .  D ADDR   0004H   A   
AR5. . . . . . . . . . . . . . .  D ADDR   0005H   A   
AR6. . . . . . . . . . . . . . .  D ADDR   0006H   A   
AR7. . . . . . . . . . . . . . .  D ADDR   0007H   A   
AUXR . . . . . . . . . . . . . .  D ADDR   008EH   A   
B. . . . . . . . . . . . . . . .  D ADDR   00F0H   A   
B?1267 . . . . . . . . . . . . .  X ADDR   0001H   R   SEG=?XD?_COLOR?TEXT1
B?28109. . . . . . . . . . . . .  X ADDR   0305H   R   SEG=?XD?_LIGHTEFFECT1?TEXT1
B?857. . . . . . . . . . . . . .  X ADDR   0004H   R   SEG=?XD?_SETPOINTCOLOUR?TEXT1
BUF_B. . . . . . . . . . . . . .  X ADDR   0000H   R   SEG=?XD?TEXT1
BUF_G. . . . . . . . . . . . . .  X ADDR   0040H   R   SEG=?XD?TEXT1
BUF_R. . . . . . . . . . . . . .  X ADDR   0080H   R   SEG=?XD?TEXT1
C?1063 . . . . . . . . . . . . .  X ADDR   0001H   R   SEG=?XD?_SENTPIXELCOLOR?TEXT1
C?1675 . . . . . . . . . . . . .  X ADDR   0000H   R   SEG=?XD?_THEATERCHASE?TEXT1
C?1884 . . . . . . . . . . . . .  X ADDR   0000H   R   SEG=?XD?_COLORWIPE?TEXT1
C?960. . . . . . . . . . . . . .  X ADDR   0001H   R   SEG=?XD?_SETPIXELCOLOR?TEXT1
CLK. . . . . . . . . . . . . . .  B ADDR   0090H.7 A   
CS . . . . . . . . . . . . . . .  B ADDR   0090H.6 A   
CY . . . . . . . . . . . . . . .  B ADDR   00D0H.7 A   
DAT. . . . . . . . . . . . . . .  B ADDR   0090H.4 A   
DATAA?41128. . . . . . . . . . .  X ADDR   0000H   R   SEG=?XD?_WS2812ASM?TEXT1
DELAY50US. . . . . . . . . . . .  C ADDR   0000H   R   SEG=?PR?DELAY50US?TEXT1
DPH. . . . . . . . . . . . . . .  D ADDR   0083H   A   
DPL. . . . . . . . . . . . . . .  D ADDR   0082H   A   
EA . . . . . . . . . . . . . . .  B ADDR   00A8H.7 A   
ES . . . . . . . . . . . . . . .  B ADDR   00A8H.4 A   
ET0. . . . . . . . . . . . . . .  B ADDR   00A8H.1 A   
ET1. . . . . . . . . . . . . . .  B ADDR   00A8H.3 A   
EX0. . . . . . . . . . . . . . .  B ADDR   00A8H.0 A   
EX1. . . . . . . . . . . . . . .  B ADDR   00A8H.2 A   
F0 . . . . . . . . . . . . . . .  B ADDR   00D0H.5 A   
FRE?27101. . . . . . . . . . . .  X ADDR   0000H   R   SEG=?XD?_LIGHTEFFECT2?TEXT1
G?28108. . . . . . . . . . . . .  X ADDR   0185H   R   SEG=?XD?_LIGHTEFFECT1?TEXT1
G?856. . . . . . . . . . . . . .  X ADDR   0003H   R   SEG=?XD?_SETPOINTCOLOUR?TEXT1
GETNUM . . . . . . . . . . . . .  C ADDR   0000H   R   SEG=?PR?GETNUM?TEXT1
A51 MACRO ASSEMBLER  TEXT1                                                                01/10/2019 19:42:26 PAGE   111

I?143. . . . . . . . . . . . . .  X ADDR   0000H   R   SEG=?XD?RESET?TEXT1
I?1470 . . . . . . . . . . . . .  X ADDR   0002H   R   SEG=?XD?_RAINBOW?TEXT1
I?1573 . . . . . . . . . . . . .  X ADDR   0002H   R   SEG=?XD?_RAINBOWCYCLE?TEXT1
I?1679 . . . . . . . . . . . . .  X ADDR   000AH   R   SEG=?XD?_THEATERCHASE?TEXT1
I?1783 . . . . . . . . . . . . .  X ADDR   0006H   R   SEG=?XD?_THEATERCHASERAINBOW?TEXT1
I?1886 . . . . . . . . . . . . .  X ADDR   0006H   R   SEG=?XD?_COLORWIPE?TEXT1
I?2188 . . . . . . . . . . . . .  X ADDR   0000H   R   SEG=?XD?LIGHTEFFECT1_1?TEXT1
I?2290 . . . . . . . . . . . . .  X ADDR   0000H   R   SEG=?XD?LIGHTEFFECT1_8?TEXT1
I?2392 . . . . . . . . . . . . .  X ADDR   0000H   R   SEG=?XD?LIGHTEFFECT8_1?TEXT1
I?2494 . . . . . . . . . . . . .  X ADDR   0000H   R   SEG=?XD?LIGHTEFFECT8_8?TEXT1
I?2697 . . . . . . . . . . . . .  X ADDR   0002H   R   SEG=?XD?LIGHTSUNSHINEWITHMUSIC?TEXT1
I?27102. . . . . . . . . . . . .  X ADDR   0002H   R   SEG=?XD?_LIGHTEFFECT2?TEXT1
I?28106. . . . . . . . . . . . .  X ADDR   0003H   R   SEG=?XD?_LIGHTEFFECT1?TEXT1
IE . . . . . . . . . . . . . . .  D ADDR   00A8H   A   
IE0. . . . . . . . . . . . . . .  B ADDR   0088H.1 A   
IE1. . . . . . . . . . . . . . .  B ADDR   0088H.3 A   
INT0 . . . . . . . . . . . . . .  B ADDR   00B0H.2 A   
INT1 . . . . . . . . . . . . . .  B ADDR   00B0H.3 A   
IP . . . . . . . . . . . . . . .  D ADDR   00B8H   A   
IT0. . . . . . . . . . . . . . .  B ADDR   0088H.0 A   
IT1. . . . . . . . . . . . . . .  B ADDR   0088H.2 A   
J?1471 . . . . . . . . . . . . .  X ADDR   0004H   R   SEG=?XD?_RAINBOW?TEXT1
J?1574 . . . . . . . . . . . . .  X ADDR   0004H   R   SEG=?XD?_RAINBOWCYCLE?TEXT1
J?1677 . . . . . . . . . . . . .  X ADDR   0006H   R   SEG=?XD?_THEATERCHASE?TEXT1
J?1781 . . . . . . . . . . . . .  X ADDR   0002H   R   SEG=?XD?_THEATERCHASERAINBOW?TEXT1
J?2698 . . . . . . . . . . . . .  X ADDR   0004H   R   SEG=?XD?LIGHTSUNSHINEWITHMUSIC?TEXT1
J?28105. . . . . . . . . . . . .  X ADDR   0001H   R   SEG=?XD?_LIGHTEFFECT1?TEXT1
K?2189 . . . . . . . . . . . . .  X ADDR   0002H   R   SEG=?XD?LIGHTEFFECT1_1?TEXT1
K?2291 . . . . . . . . . . . . .  X ADDR   0002H   R   SEG=?XD?LIGHTEFFECT1_8?TEXT1
K?2393 . . . . . . . . . . . . .  X ADDR   0002H   R   SEG=?XD?LIGHTEFFECT8_1?TEXT1
K?2495 . . . . . . . . . . . . .  X ADDR   0002H   R   SEG=?XD?LIGHTEFFECT8_8?TEXT1
KEY. . . . . . . . . . . . . . .  B ADDR   0090H.5 A   
KEYVALUE?40127 . . . . . . . . .  X ADDR   0000H   R   SEG=?XD?MAIN?TEXT1
KEY_READ . . . . . . . . . . . .  C ADDR   0000H   R   SEG=?PR?KEY_READ?TEXT1
L?0417 . . . . . . . . . . . . .  C ADDR   0000H   R   SEG=?PR?_SEND_2811_24BITS?TEXT1
L?0418 . . . . . . . . . . . . .  C ADDR   0000H   R   SEG=?PR?_SEND_2811_24BITS?TEXT1
L?0419 . . . . . . . . . . . . .  C ADDR   0000H   R   SEG=?PR?_THEATERCHASE?TEXT1
L?0420 . . . . . . . . . . . . .  C ADDR   0000H   R   SEG=?PR?_THEATERCHASE?TEXT1
L?0421 . . . . . . . . . . . . .  C ADDR   0000H   R   SEG=?PR?_COLOR?TEXT1
L?0422 . . . . . . . . . . . . .  C ADDR   0000H   R   SEG=?PR?_HAL_DELAY?TEXT1
L?0423 . . . . . . . . . . . . .  C ADDR   0000H   R   SEG=?PR?_HAL_DELAY?TEXT1
LIGHTEFFECT1_1 . . . . . . . . .  C ADDR   0000H   R   SEG=?PR?LIGHTEFFECT1_1?TEXT1
LIGHTEFFECT1_8 . . . . . . . . .  C ADDR   0000H   R   SEG=?PR?LIGHTEFFECT1_8?TEXT1
LIGHTEFFECT8_1 . . . . . . . . .  C ADDR   0000H   R   SEG=?PR?LIGHTEFFECT8_1?TEXT1
LIGHTEFFECT8_8 . . . . . . . . .  C ADDR   0000H   R   SEG=?PR?LIGHTEFFECT8_8?TEXT1
LIGHTSUNSHINEWITHMUSIC . . . . .  C ADDR   0000H   R   SEG=?PR?LIGHTSUNSHINEWITHMUSIC?TEXT1
LONG_DELAY . . . . . . . . . . .  C ADDR   0000H   R   SEG=?PR?LONG_DELAY?TEXT1
MAIN . . . . . . . . . . . . . .  C ADDR   0000H   R   SEG=?PR?MAIN?TEXT1
NUM?1062 . . . . . . . . . . . .  X ADDR   0000H   R   SEG=?XD?_SENTPIXELCOLOR?TEXT1
NUM?2087 . . . . . . . . . . . .  X ADDR   0000H   R   SEG=?XD?_LIGHTEFFECT8?TEXT1
NUM?854. . . . . . . . . . . . .  X ADDR   0000H   R   SEG=?XD?_SETPOINTCOLOUR?TEXT1
NUM?959. . . . . . . . . . . . .  X ADDR   0000H   R   SEG=?XD?_SETPIXELCOLOR?TEXT1
OV . . . . . . . . . . . . . . .  B ADDR   00D0H.2 A   
P. . . . . . . . . . . . . . . .  B ADDR   00D0H.0 A   
P0 . . . . . . . . . . . . . . .  D ADDR   0080H   A   
P1 . . . . . . . . . . . . . . .  D ADDR   0090H   A   
P10. . . . . . . . . . . . . . .  B ADDR   0090H.0 A   
P11. . . . . . . . . . . . . . .  B ADDR   0090H.1 A   
P13. . . . . . . . . . . . . . .  B ADDR   0090H.3 A   
P2 . . . . . . . . . . . . . . .  D ADDR   00A0H   A   
P3 . . . . . . . . . . . . . . .  D ADDR   00B0H   A   
PCON . . . . . . . . . . . . . .  D ADDR   0087H   A   
PERTIME?27103. . . . . . . . . .  X ADDR   0004H   R   SEG=?XD?_LIGHTEFFECT2?TEXT1
PIXELUPDATE. . . . . . . . . . .  C ADDR   0000H   R   SEG=?PR?PIXELUPDATE?TEXT1
PS . . . . . . . . . . . . . . .  B ADDR   00B8H.4 A   
PSW. . . . . . . . . . . . . . .  D ADDR   00D0H   A   
A51 MACRO ASSEMBLER  TEXT1                                                                01/10/2019 19:42:26 PAGE   112

PT0. . . . . . . . . . . . . . .  B ADDR   00B8H.1 A   
PT1. . . . . . . . . . . . . . .  B ADDR   00B8H.3 A   
PX0. . . . . . . . . . . . . . .  B ADDR   00B8H.0 A   
PX1. . . . . . . . . . . . . . .  B ADDR   00B8H.2 A   
Q?1678 . . . . . . . . . . . . .  X ADDR   0008H   R   SEG=?XD?_THEATERCHASE?TEXT1
Q?1782 . . . . . . . . . . . . .  X ADDR   0004H   R   SEG=?XD?_THEATERCHASERAINBOW?TEXT1
R?1265 . . . . . . . . . . . . .  X ADDR   0000H   R   SEG=?XD?_COLOR?TEXT1
R?28107. . . . . . . . . . . . .  X ADDR   0005H   R   SEG=?XD?_LIGHTEFFECT1?TEXT1
R?855. . . . . . . . . . . . . .  X ADDR   0002H   R   SEG=?XD?_SETPOINTCOLOUR?TEXT1
RAND . . . . . . . . . . . . . .  C ADDR   -----       EXT
RANDNUMBER?2696. . . . . . . . .  X ADDR   0000H   R   SEG=?XD?LIGHTSUNSHINEWITHMUSIC?TEXT1
RB8. . . . . . . . . . . . . . .  B ADDR   0098H.2 A   
RD . . . . . . . . . . . . . . .  B ADDR   00B0H.7 A   
RECEIVEDBYTETOMCU. . . . . . . .  C ADDR   0000H   R   SEG=?PR?RECEIVEDBYTETOMCU?TEXT1
REN. . . . . . . . . . . . . . .  B ADDR   0098H.4 A   
RESET. . . . . . . . . . . . . .  C ADDR   0000H   R   SEG=?PR?RESET?TEXT1
RGB_RST. . . . . . . . . . . . .  C ADDR   0000H   R   SEG=?PR?RGB_RST?TEXT1
RGB_SET_DOWN . . . . . . . . . .  C ADDR   0000H   R   SEG=?PR?RGB_SET_DOWN?TEXT1
RGB_SET_UP . . . . . . . . . . .  C ADDR   0000H   R   SEG=?PR?RGB_SET_UP?TEXT1
RI . . . . . . . . . . . . . . .  B ADDR   0098H.0 A   
RS0. . . . . . . . . . . . . . .  B ADDR   00D0H.3 A   
RS1. . . . . . . . . . . . . . .  B ADDR   00D0H.4 A   
RXD. . . . . . . . . . . . . . .  B ADDR   00B0H.0 A   
SBUF . . . . . . . . . . . . . .  D ADDR   0099H   A   
SCON . . . . . . . . . . . . . .  D ADDR   0098H   A   
SHORT_DELAY. . . . . . . . . . .  C ADDR   0000H   R   SEG=?PR?SHORT_DELAY?TEXT1
SM0. . . . . . . . . . . . . . .  B ADDR   0098H.7 A   
SM1. . . . . . . . . . . . . . .  B ADDR   0098H.6 A   
SM2. . . . . . . . . . . . . . .  B ADDR   0098H.5 A   
SP . . . . . . . . . . . . . . .  D ADDR   0081H   A   
T0 . . . . . . . . . . . . . . .  B ADDR   00B0H.4 A   
T1 . . . . . . . . . . . . . . .  B ADDR   00B0H.5 A   
TB8. . . . . . . . . . . . . . .  B ADDR   0098H.3 A   
TCON . . . . . . . . . . . . . .  D ADDR   0088H   A   
TEXT1. . . . . . . . . . . . . .  N NUMB   -----       
TF0. . . . . . . . . . . . . . .  B ADDR   0088H.5 A   
TF1. . . . . . . . . . . . . . .  B ADDR   0088H.7 A   
TH0. . . . . . . . . . . . . . .  D ADDR   008CH   A   
TH1. . . . . . . . . . . . . . .  D ADDR   008DH   A   
TI . . . . . . . . . . . . . . .  B ADDR   0098H.1 A   
TIME?28104 . . . . . . . . . . .  X ADDR   0000H   R   SEG=?XD?_LIGHTEFFECT1?TEXT1
TL0. . . . . . . . . . . . . . .  D ADDR   008AH   A   
TL1. . . . . . . . . . . . . . .  D ADDR   008BH   A   
TMOD . . . . . . . . . . . . . .  D ADDR   0089H   A   
TR0. . . . . . . . . . . . . . .  B ADDR   0088H.4 A   
TR1. . . . . . . . . . . . . . .  B ADDR   0088H.6 A   
TXD. . . . . . . . . . . . . . .  B ADDR   00B0H.1 A   
UARTINIT . . . . . . . . . . . .  C ADDR   0000H   R   SEG=?PR?UARTINIT?TEXT1
WAIT?1469. . . . . . . . . . . .  X ADDR   0000H   R   SEG=?XD?_RAINBOW?TEXT1
WAIT?1572. . . . . . . . . . . .  X ADDR   0000H   R   SEG=?XD?_RAINBOWCYCLE?TEXT1
WAIT?1676. . . . . . . . . . . .  X ADDR   0004H   R   SEG=?XD?_THEATERCHASE?TEXT1
WAIT?1780. . . . . . . . . . . .  X ADDR   0000H   R   SEG=?XD?_THEATERCHASERAINBOW?TEXT1
WAIT?1885. . . . . . . . . . . .  X ADDR   0004H   R   SEG=?XD?_COLORWIPE?TEXT1
WHEELPOS?1368. . . . . . . . . .  X ADDR   0000H   R   SEG=?XD?_WHEEL?TEXT1
WR . . . . . . . . . . . . . . .  B ADDR   00B0H.6 A   
WS2812 . . . . . . . . . . . . .  B ADDR   0090H.2 A   
WS2812LOOP . . . . . . . . . . .  C ADDR   0008H   R   SEG=?PR?_WS2812ASM?TEXT1
XUHAO?2699 . . . . . . . . . . .  X ADDR   0006H   R   SEG=?XD?LIGHTSUNSHINEWITHMUSIC?TEXT1
ZIDINGYI1. . . . . . . . . . . .  C ADDR   0000H   R   SEG=?PR?ZIDINGYI1?TEXT1
_?IX1000 . . . . . . . . . . . .  C ADDR   0000H   R   SEG=?CO?TEXT1
_?IX1001 . . . . . . . . . . . .  C ADDR   0180H   R   SEG=?CO?TEXT1
_?IX1002 . . . . . . . . . . . .  C ADDR   0300H   R   SEG=?CO?TEXT1
_COLOR . . . . . . . . . . . . .  C ADDR   0012H   R   SEG=?PR?_COLOR?TEXT1
_COLORWIPE . . . . . . . . . . .  C ADDR   0000H   R   SEG=?PR?_COLORWIPE?TEXT1
_DELAY1MS. . . . . . . . . . . .  C ADDR   0000H   R   SEG=?PR?_DELAY1MS?TEXT1
_DELAYMS . . . . . . . . . . . .  C ADDR   0000H   R   SEG=?PR?_DELAYMS?TEXT1
A51 MACRO ASSEMBLER  TEXT1                                                                01/10/2019 19:42:26 PAGE   113

_HAL_DELAY . . . . . . . . . . .  C ADDR   0005H   R   SEG=?PR?_HAL_DELAY?TEXT1
_LIGHTCONTROLL . . . . . . . . .  C ADDR   0000H   R   SEG=?PR?_LIGHTCONTROLL?TEXT1
_LIGHTEFFECT1. . . . . . . . . .  C ADDR   0000H   R   SEG=?PR?_LIGHTEFFECT1?TEXT1
_LIGHTEFFECT2. . . . . . . . . .  C ADDR   0000H   R   SEG=?PR?_LIGHTEFFECT2?TEXT1
_LIGHTEFFECT8. . . . . . . . . .  C ADDR   0000H   R   SEG=?PR?_LIGHTEFFECT8?TEXT1
_RAINBOW . . . . . . . . . . . .  C ADDR   0000H   R   SEG=?PR?_RAINBOW?TEXT1
_RAINBOWCYCLE. . . . . . . . . .  C ADDR   0000H   R   SEG=?PR?_RAINBOWCYCLE?TEXT1
_SENDBYTE2COMPUTER . . . . . . .  C ADDR   0000H   R   SEG=?PR?_SENDBYTE2COMPUTER?TEXT1
_SENDBYTES2COMPUTER. . . . . . .  C ADDR   0000H   R   SEG=?PR?_SENDBYTES2COMPUTER?TEXT1
_SENDBYTETO7279. . . . . . . . .  C ADDR   0000H   R   SEG=?PR?_SENDBYTETO7279?TEXT1
_SEND_2811_24BITS. . . . . . . .  C ADDR   0024H   R   SEG=?PR?_SEND_2811_24BITS?TEXT1
_SENTPIXELCOLOR. . . . . . . . .  C ADDR   0000H   R   SEG=?PR?_SENTPIXELCOLOR?TEXT1
_SETPIXELCOLOR . . . . . . . . .  C ADDR   0000H   R   SEG=?PR?_SETPIXELCOLOR?TEXT1
_SETPOINTCOLOUR. . . . . . . . .  C ADDR   0000H   R   SEG=?PR?_SETPOINTCOLOUR?TEXT1
_SET_COLOUR. . . . . . . . . . .  C ADDR   0000H   R   SEG=?PR?_SET_COLOUR?TEXT1
_THEATERCHASE. . . . . . . . . .  C ADDR   0009H   R   SEG=?PR?_THEATERCHASE?TEXT1
_THEATERCHASERAINBOW . . . . . .  C ADDR   0000H   R   SEG=?PR?_THEATERCHASERAINBOW?TEXT1
_WHEEL . . . . . . . . . . . . .  C ADDR   0000H   R   SEG=?PR?_WHEEL?TEXT1
_WS2812ASM . . . . . . . . . . .  C ADDR   0000H   R   SEG=?PR?_WS2812ASM?TEXT1


REGISTER BANK(S) USED: 0 


ASSEMBLY COMPLETE.  0 WARNING(S), 0 ERROR(S)
